ARM GAS  C:\tools\cygwin\tmp\ccTehw5d.s 			page 1


   1              		.cpu cortex-m0plus
   2              		.arch armv6s-m
   3              		.fpu softvfp
   4              		.eabi_attribute 20, 1	@ Tag_ABI_FP_denormal
   5              		.eabi_attribute 21, 1	@ Tag_ABI_FP_exceptions
   6              		.eabi_attribute 23, 3	@ Tag_ABI_FP_number_model
   7              		.eabi_attribute 24, 1	@ Tag_ABI_align8_needed
   8              		.eabi_attribute 25, 1	@ Tag_ABI_align8_preserved
   9              		.eabi_attribute 26, 1	@ Tag_ABI_enum_size
  10              		.eabi_attribute 30, 1	@ Tag_ABI_optimization_goals
  11              		.eabi_attribute 34, 0	@ Tag_CPU_unaligned_access
  12              		.eabi_attribute 18, 4	@ Tag_ABI_PCS_wchar_t
  13              		.file	"main.c"
  14              	@ GNU C11 (Arm GNU Toolchain 15.2.Rel1 (Build arm-15.86)) version 15.2.1 20251203 (arm-none-eabi)
  15              	@	compiled by GNU C version 13-win32, GMP version 6.2.1, MPFR version 3.1.6, MPC version 1.0.3, isl
  16              	
  17              	@ GGC heuristics: --param ggc-min-expand=100 --param ggc-min-heapsize=131072
  18              	@ options passed: -mcpu=cortex-m0plus -mthumb -mfloat-abi=soft -march=armv6s-m -g3 -gdwarf -Og -std
  19              		.text
  20              	.Ltext0:
  21              		.cfi_sections	.debug_frame
  22              		.file 1 "./src/main.c"
  23              		.section	.text._close_r,"ax",%progbits
  24              		.align	1
  25              		.global	_close_r
  26              		.syntax unified
  27              		.code	16
  28              		.thumb_func
  30              	_close_r:
  31              	.LFB55:
  32              		.file 2 "./inc/main.h"
   1:./inc/main.h  **** #ifndef __MAIN_H__
   2:./inc/main.h  **** #define __MAIN_H__
   3:./inc/main.h  **** 
   4:./inc/main.h  **** #ifdef __cplusplus /* provide compatibility between C and C++ */
   5:./inc/main.h  ****   extern "C" {
   6:./inc/main.h  **** #endif
   7:./inc/main.h  **** 
   8:./inc/main.h  **** #define NO                             0
   9:./inc/main.h  **** #define NONE                           NO
  10:./inc/main.h  **** #define OFF                            NO
  11:./inc/main.h  **** #define YES                            (!NO)
  12:./inc/main.h  **** #define ON                             YES
  13:./inc/main.h  **** 
  14:./inc/main.h  **** #define HCLK                           8    /* 8 to 64 (MHz) with a step of 4 */
  15:./inc/main.h  **** 
  16:./inc/main.h  **** #define SYSTICK_CLOCK_SOURCE           0    /* 0 = HCLK / 8; 1 = HCLK         */
  17:./inc/main.h  **** #define SYSTICK_ENABLE                 YES
  18:./inc/main.h  **** #define SYSTICK_IRQ_ENABLE             NO
  19:./inc/main.h  **** 
  20:./inc/main.h  **** #if HCLK < 8 || HCLK > 64 || (HCLK % 4 != 0)
  21:./inc/main.h  ****   #error "Invalid HCLK value. Must be between 8 and 64 MHz with a step of 4 MHz."
  22:./inc/main.h  **** #endif 
  23:./inc/main.h  **** 
  24:./inc/main.h  **** 
  25:./inc/main.h  **** #include "stm32g031xx.h" /* Include CMSIS header file */
  26:./inc/main.h  **** 
ARM GAS  C:\tools\cygwin\tmp\ccTehw5d.s 			page 2


  27:./inc/main.h  **** /* Uncomment the corresponding line if using the peripheral is intended. */
  28:./inc/main.h  **** // #include "pwr.h"
  29:./inc/main.h  **** // #include "tim.h"
  30:./inc/main.h  **** // #include "rtc.h"
  31:./inc/main.h  **** // #include "wwdg.h"
  32:./inc/main.h  **** // #include "iwdg.h"
  33:./inc/main.h  **** // #include "spi.h"
  34:./inc/main.h  **** // #include "usart.h"
  35:./inc/main.h  **** // #include "i2c.h"
  36:./inc/main.h  **** // #include "lptim.h"
  37:./inc/main.h  **** // #include "tamp.h"
  38:./inc/main.h  **** // #include "syscfg.h"
  39:./inc/main.h  **** // #include "vrefbuf.h"
  40:./inc/main.h  **** // #include "adc.h"
  41:./inc/main.h  **** // #include "dbg.h"
  42:./inc/main.h  **** // #include "dma.h"
  43:./inc/main.h  **** // #include "dmamux.h"
  44:./inc/main.h  **** // #include "exti.h"
  45:./inc/main.h  **** // #include "crc.h"
  46:./inc/main.h  **** // #include "flash.h"
  47:./inc/main.h  **** 
  48:./inc/main.h  **** #include "gpio.h"
  49:./inc/main.h  **** #include "rcc.h"
  50:./inc/main.h  **** 
  51:./inc/main.h  **** 
  52:./inc/main.h  **** __STATIC_FORCEINLINE void init_systick(void);
  53:./inc/main.h  **** 
  54:./inc/main.h  **** 
  55:./inc/main.h  **** /* Initialize all the required peripherals */
  56:./inc/main.h  **** __STATIC_FORCEINLINE void init(void) {
  57:./inc/main.h  **** 
  58:./inc/main.h  **** #if(defined(FLASH_EN) && FLASH_EN)
  59:./inc/main.h  ****   init_flash();
  60:./inc/main.h  **** #endif
  61:./inc/main.h  **** 
  62:./inc/main.h  ****   /* RCC should always be initialized as it is essential peripheral for the functioning of the syst
  63:./inc/main.h  ****   init_rcc();
  64:./inc/main.h  **** 
  65:./inc/main.h  **** #if(defined(PWR_EN) && PWR_EN)
  66:./inc/main.h  ****   init_pwr();
  67:./inc/main.h  **** #endif
  68:./inc/main.h  **** 
  69:./inc/main.h  **** #if(defined(TIM1_EN) && TIM1_EN) || (defined(TIM2_EN) && TIM2_EN) || (defined(TIM3_EN) && TIM3_EN) 
  70:./inc/main.h  ****   init_tim();
  71:./inc/main.h  **** #endif
  72:./inc/main.h  **** 
  73:./inc/main.h  **** #if(defined(RTC_EN) && RTC_EN)
  74:./inc/main.h  ****   init_rtc();
  75:./inc/main.h  **** #endif
  76:./inc/main.h  **** 
  77:./inc/main.h  **** #if(defined(WWDG_EN) && WWDG_EN)
  78:./inc/main.h  ****   init_wwdg();
  79:./inc/main.h  **** #endif
  80:./inc/main.h  **** 
  81:./inc/main.h  **** #if(defined(IWDG_EN) && IWDG_EN)
  82:./inc/main.h  ****   init_iwdg();
  83:./inc/main.h  **** #endif
ARM GAS  C:\tools\cygwin\tmp\ccTehw5d.s 			page 3


  84:./inc/main.h  **** 
  85:./inc/main.h  **** #if(defined(SPI1_EN) && SPI1_EN) || (defined(SPI2_EN) && SPI2_EN)
  86:./inc/main.h  ****   init_spi();
  87:./inc/main.h  **** #endif
  88:./inc/main.h  **** 
  89:./inc/main.h  **** #if(defined(LPUART1_EN) && LPUART1_EN) || (defined(USART1_EN) && USART1_EN) || (defined(USART2_EN) 
  90:./inc/main.h  ****   init_usart();
  91:./inc/main.h  **** #endif
  92:./inc/main.h  **** 
  93:./inc/main.h  **** #if(defined(I2C1_EN) && I2C1_EN) || (defined(I2C2_EN) && I2C2_EN)
  94:./inc/main.h  ****   init_i2c();
  95:./inc/main.h  **** #endif
  96:./inc/main.h  **** 
  97:./inc/main.h  **** #if(defined(LPTIM1_EN) && LPTIM1_EN) || (defined(LPTIM2_EN) && LPTIM2_EN)
  98:./inc/main.h  ****   init_lptim();
  99:./inc/main.h  **** #endif
 100:./inc/main.h  **** 
 101:./inc/main.h  **** #if(defined(TAMP_EN) && TAMP_EN)
 102:./inc/main.h  ****   init_tamp();
 103:./inc/main.h  **** #endif
 104:./inc/main.h  **** 
 105:./inc/main.h  **** #if(defined(SYSCFG_EN) && SYSCFG_EN)
 106:./inc/main.h  ****   init_syscfg();
 107:./inc/main.h  **** #endif
 108:./inc/main.h  **** 
 109:./inc/main.h  **** #if(defined(VREFBUF_EN) && VREFBUF_EN)
 110:./inc/main.h  ****   init_vrefbuf();
 111:./inc/main.h  **** #endif
 112:./inc/main.h  **** 
 113:./inc/main.h  **** #if(defined(ADC1_EN) && ADC1_EN)
 114:./inc/main.h  ****   init_adc();
 115:./inc/main.h  **** #endif
 116:./inc/main.h  **** 
 117:./inc/main.h  **** #if(defined(DBG_EN) && DBG_EN)
 118:./inc/main.h  ****   init_dbg();
 119:./inc/main.h  **** #endif
 120:./inc/main.h  **** 
 121:./inc/main.h  **** #if(defined(DMA1_EN) && DMA1_EN)
 122:./inc/main.h  ****   init_dma();
 123:./inc/main.h  **** #endif
 124:./inc/main.h  **** 
 125:./inc/main.h  **** #if(defined(DMAMUX1_EN) && DMAMUX1_EN) || (defined(DMAMUX1_Channel0_EN) && DMAMUX1_Channel0_EN) || 
 126:./inc/main.h  ****   init_dmamux();
 127:./inc/main.h  **** #endif
 128:./inc/main.h  **** 
 129:./inc/main.h  **** #if(defined(EXTI_EN) && EXTI_EN)
 130:./inc/main.h  ****   init_exti();
 131:./inc/main.h  **** #endif
 132:./inc/main.h  **** 
 133:./inc/main.h  **** #if(defined(CRC_EN) && CRC_EN)
 134:./inc/main.h  ****   init_crc();
 135:./inc/main.h  **** #endif
 136:./inc/main.h  **** 
 137:./inc/main.h  ****   /* GPIO should always be initialized as it is essential peripheral for the functioning of the sys
 138:./inc/main.h  ****   init_gpio();
 139:./inc/main.h  **** 
 140:./inc/main.h  ****   /* Perform additional steps after initialization */
ARM GAS  C:\tools\cygwin\tmp\ccTehw5d.s 			page 4


 141:./inc/main.h  ****   init_systick();
 142:./inc/main.h  **** 
 143:./inc/main.h  **** } /* init() */
 144:./inc/main.h  **** 
 145:./inc/main.h  **** 
 146:./inc/main.h  **** __STATIC_FORCEINLINE void init_systick(void) {
 147:./inc/main.h  **** 
 148:./inc/main.h  ****   /* Initialize SysTick to 1 ms period */
 149:./inc/main.h  **** 
 150:./inc/main.h  ****   SysTick->LOAD = HCLK * 1000 / (8 - SYSTICK_CLOCK_SOURCE * 7) - 1;
 151:./inc/main.h  ****   SysTick->VAL  = SysTick->LOAD;
 152:./inc/main.h  ****   SysTick->CTRL = (
 153:./inc/main.h  ****     + SYSTICK_CLOCK_SOURCE * SysTick_CTRL_CLKSOURCE_Msk
 154:./inc/main.h  ****     + SYSTICK_IRQ_ENABLE   * SysTick_CTRL_TICKINT_Msk
 155:./inc/main.h  ****     + SYSTICK_ENABLE       * SysTick_CTRL_ENABLE_Msk
 156:./inc/main.h  ****   );
 157:./inc/main.h  **** } /* init_systick() */
 158:./inc/main.h  **** 
 159:./inc/main.h  **** 
 160:./inc/main.h  **** __STATIC_FORCEINLINE void idle(void); // {
 161:./inc/main.h  ****   /* Routine to handle idle state (waiting for an event) */
 162:./inc/main.h  **** 
 163:./inc/main.h  **** 
 164:./inc/main.h  **** //} /* idle() */
 165:./inc/main.h  **** 
 166:./inc/main.h  **** 
 167:./inc/main.h  **** __STATIC_FORCEINLINE unsigned process(void); // {
 168:./inc/main.h  ****   /* Routine to perform main loop operations */
 169:./inc/main.h  **** 
 170:./inc/main.h  **** 
 171:./inc/main.h  **** //} /* process() */
 172:./inc/main.h  **** 
 173:./inc/main.h  **** #if YES == SYSTICK_IRQ_ENABLE
 174:./inc/main.h  ****   #define __SYSTICK_VOLATILE volatile
 175:./inc/main.h  **** #else
 176:./inc/main.h  ****   #define __SYSTICK_VOLATILE
 177:./inc/main.h  **** #endif
 178:./inc/main.h  **** 
 179:./inc/main.h  **** #if defined(__GNUC__) && ! defined(__clang__)
 180:./inc/main.h  ****   void _close_r(void){} void _close(void){} void _lseek_r(void){} void _lseek(void){} void _read_r(
  33              		.loc 2 180 22 view -0
  34              		.cfi_startproc
  35              		@ args = 0, pretend = 0, frame = 0
  36              		@ frame_needed = 0, uses_anonymous_args = 0
  37              		@ link register save eliminated.
  38              		.loc 2 180 23 view .LVU1
  39              		@ sp needed	@
  40 0000 7047     		bx	lr
  41              		.cfi_endproc
  42              	.LFE55:
  44              		.section	.text._close,"ax",%progbits
  45              		.align	1
  46              		.global	_close
  47              		.syntax unified
  48              		.code	16
  49              		.thumb_func
  51              	_close:
ARM GAS  C:\tools\cygwin\tmp\ccTehw5d.s 			page 5


  52              	.LFB56:
  53              		.loc 2 180 42 view -0
  54              		.cfi_startproc
  55              		@ args = 0, pretend = 0, frame = 0
  56              		@ frame_needed = 0, uses_anonymous_args = 0
  57              		@ link register save eliminated.
  58              		.loc 2 180 43 view .LVU3
  59              		@ sp needed	@
  60 0000 7047     		bx	lr
  61              		.cfi_endproc
  62              	.LFE56:
  64              		.section	.text._lseek_r,"ax",%progbits
  65              		.align	1
  66              		.global	_lseek_r
  67              		.syntax unified
  68              		.code	16
  69              		.thumb_func
  71              	_lseek_r:
  72              	.LFB57:
  73              		.loc 2 180 64 view -0
  74              		.cfi_startproc
  75              		@ args = 0, pretend = 0, frame = 0
  76              		@ frame_needed = 0, uses_anonymous_args = 0
  77              		@ link register save eliminated.
  78              		.loc 2 180 65 view .LVU5
  79              		@ sp needed	@
  80 0000 7047     		bx	lr
  81              		.cfi_endproc
  82              	.LFE57:
  84              		.section	.text._lseek,"ax",%progbits
  85              		.align	1
  86              		.global	_lseek
  87              		.syntax unified
  88              		.code	16
  89              		.thumb_func
  91              	_lseek:
  92              	.LFB58:
  93              		.loc 2 180 84 view -0
  94              		.cfi_startproc
  95              		@ args = 0, pretend = 0, frame = 0
  96              		@ frame_needed = 0, uses_anonymous_args = 0
  97              		@ link register save eliminated.
  98              		.loc 2 180 85 view .LVU7
  99              		@ sp needed	@
 100 0000 7047     		bx	lr
 101              		.cfi_endproc
 102              	.LFE58:
 104              		.section	.text._read_r,"ax",%progbits
 105              		.align	1
 106              		.global	_read_r
 107              		.syntax unified
 108              		.code	16
 109              		.thumb_func
 111              	_read_r:
 112              	.LFB59:
 113              		.loc 2 180 105 view -0
 114              		.cfi_startproc
ARM GAS  C:\tools\cygwin\tmp\ccTehw5d.s 			page 6


 115              		@ args = 0, pretend = 0, frame = 0
 116              		@ frame_needed = 0, uses_anonymous_args = 0
 117              		@ link register save eliminated.
 118              		.loc 2 180 106 view .LVU9
 119              		@ sp needed	@
 120 0000 7047     		bx	lr
 121              		.cfi_endproc
 122              	.LFE59:
 124              		.section	.text._read,"ax",%progbits
 125              		.align	1
 126              		.global	_read
 127              		.syntax unified
 128              		.code	16
 129              		.thumb_func
 131              	_read:
 132              	.LFB60:
 133              		.loc 2 180 124 view -0
 134              		.cfi_startproc
 135              		@ args = 0, pretend = 0, frame = 0
 136              		@ frame_needed = 0, uses_anonymous_args = 0
 137              		@ link register save eliminated.
 138              		.loc 2 180 125 view .LVU11
 139              		@ sp needed	@
 140 0000 7047     		bx	lr
 141              		.cfi_endproc
 142              	.LFE60:
 144              		.section	.text._write_r,"ax",%progbits
 145              		.align	1
 146              		.global	_write_r
 147              		.syntax unified
 148              		.code	16
 149              		.thumb_func
 151              	_write_r:
 152              	.LFB61:
 153              		.loc 2 180 146 view -0
 154              		.cfi_startproc
 155              		@ args = 0, pretend = 0, frame = 0
 156              		@ frame_needed = 0, uses_anonymous_args = 0
 157              		@ link register save eliminated.
 158              		.loc 2 180 147 view .LVU13
 159              		@ sp needed	@
 160 0000 7047     		bx	lr
 161              		.cfi_endproc
 162              	.LFE61:
 164              		.section	.text.main,"ax",%progbits
 165              		.align	1
 166              		.global	main
 167              		.syntax unified
 168              		.code	16
 169              		.thumb_func
 171              	main:
 172              	.LFB62:
   1:./src/main.c  **** #include "main.h"
   2:./src/main.c  **** 
   3:./src/main.c  **** 
   4:./src/main.c  **** int main(void) {
 173              		.loc 1 4 16 view -0
ARM GAS  C:\tools\cygwin\tmp\ccTehw5d.s 			page 7


 174              		.cfi_startproc
 175              		@ Volatile: function does not return.
 176              		@ args = 0, pretend = 0, frame = 0
 177              		@ frame_needed = 0, uses_anonymous_args = 0
 178 0000 30B5     		push	{r4, r5, lr}	@
 179              		.cfi_def_cfa_offset 12
 180              		.cfi_offset 4, -12
 181              		.cfi_offset 5, -8
 182              		.cfi_offset 14, -4
   5:./src/main.c  ****   /* Main program loop: initialize, process continuously, and idle between operations */
   6:./src/main.c  ****   for (init(); process(); idle());
 183              		.loc 1 6 3 view .LVU15
 184              	.LBB30:
 185              	.LBI30:
  56:./inc/main.h  **** 
 186              		.loc 2 56 27 view .LVU16
 187              	.LBB31:
  63:./inc/main.h  **** 
 188              		.loc 2 63 3 view .LVU17
 189              	.LBB32:
 190              	.LBI32:
 191              		.file 3 "./inc/rcc.h"
   1:./inc/rcc.h   **** #ifndef __RCC_H__
   2:./inc/rcc.h   **** #define __RCC_H__
   3:./inc/rcc.h   **** 
   4:./inc/rcc.h   **** #ifdef __cplusplus
   5:./inc/rcc.h   ****   extern "C" {
   6:./inc/rcc.h   **** #endif
   7:./inc/rcc.h   **** 
   8:./inc/rcc.h   **** 
   9:./inc/rcc.h   **** #define R                              (HCLK >= 32)
  10:./inc/rcc.h   **** 
  11:./inc/rcc.h   **** #define PLLN_VAL                       (HCLK / 4)        /* PLLN: HSI16/1*PLLN/4 = HCLK */
  12:./inc/rcc.h   **** #define PLLN_0                         ((PLLN_VAL >> 0) & 1)
  13:./inc/rcc.h   **** #define PLLN_1                         ((PLLN_VAL >> 1) & 1)
  14:./inc/rcc.h   **** #define PLLN_2                         ((PLLN_VAL >> 2) & 1)
  15:./inc/rcc.h   **** #define PLLN_3                         ((PLLN_VAL >> 3) & 1)
  16:./inc/rcc.h   **** #define PLLN_4                         ((PLLN_VAL >> 4) & 1)
  17:./inc/rcc.h   **** #define PLLN_5                         ((PLLN_VAL >> 5) & 1)
  18:./inc/rcc.h   **** #define PLLN_6                         ((PLLN_VAL >> 6) & 1)
  19:./inc/rcc.h   **** 
  20:./inc/rcc.h   **** 
  21:./inc/rcc.h   **** __STATIC_FORCEINLINE void configure_flash(void);
  22:./inc/rcc.h   **** __STATIC_FORCEINLINE void wait_for_clock_stable(void);
  23:./inc/rcc.h   **** 
  24:./inc/rcc.h   **** 
  25:./inc/rcc.h   **** #define RCC_CFGR (         \
  26:./inc/rcc.h   ****   0 * RCC_CFGR_SW          |  /* (7 << 0)     SW[2:0] bits (System clock Switch)                   
  27:./inc/rcc.h   ****   0 * RCC_CFGR_SW_0        |  /* (1 << 0)       0x00000001                                         
  28:./inc/rcc.h   ****   0 * RCC_CFGR_SW_1        |  /* (2 << 0)       0x00000002                                         
  29:./inc/rcc.h   ****   0 * RCC_CFGR_SW_2        |  /* (4 << 0)       0x00000004                                         
  30:./inc/rcc.h   ****   0 * RCC_CFGR_SW_HSISYS   |  /* 0x00000000   HSISYS oscillator selection as system clock          
  31:./inc/rcc.h   ****   0 * RCC_CFGR_SW_HSE      |  /* 0x00000001   HSE oscillator selection as system clock             
  32:./inc/rcc.h   ****   0 * RCC_CFGR_SW_PLLRCLK  |  /* 0x00000002   PLLRCLK selection as system clock                    
  33:./inc/rcc.h   ****   0 * RCC_CFGR_SW_LSI      |  /* 0x00000003   LSI oscillator selection as system clock             
  34:./inc/rcc.h   ****   0 * RCC_CFGR_SW_LSE      |  /* 0x00000004   LSE oscillator selection as system clock             
  35:./inc/rcc.h   ****   0 * RCC_CFGR_SWS         |  /* (7 << 3)     SWS[2:0] bits (System Clock Switch Status)           
ARM GAS  C:\tools\cygwin\tmp\ccTehw5d.s 			page 8


  36:./inc/rcc.h   ****   0 * RCC_CFGR_SWS_0       |  /* (1 << 3)       0x00000008                                         
  37:./inc/rcc.h   ****   0 * RCC_CFGR_SWS_1       |  /* (2 << 3)       0x00000010                                         
  38:./inc/rcc.h   ****   0 * RCC_CFGR_SWS_2       |  /* (4 << 3)       0x00000020                                         
  39:./inc/rcc.h   ****   0 * RCC_CFGR_SWS_HSISYS  |  /* 0x00000000   HSISYS used as system clock                          
  40:./inc/rcc.h   ****   0 * RCC_CFGR_SWS_HSE     |  /* 0x00000008   HSE used as system clock                             
  41:./inc/rcc.h   ****   0 * RCC_CFGR_SWS_PLLRCLK |  /* 0x00000010   PLLRCLK used as system clock                         
  42:./inc/rcc.h   ****   0 * RCC_CFGR_SWS_LSI     |  /* 0x00000018   LSI used as system clock                             
  43:./inc/rcc.h   ****   0 * RCC_CFGR_SWS_LSE     |  /* 0x00000100   LSE used as system clock                             
  44:./inc/rcc.h   ****   0 * RCC_CFGR_HPRE        |  /* (0xF << 8)   HPRE[3:0] bits (AHB prescaler)                       
  45:./inc/rcc.h   ****   0 * RCC_CFGR_HPRE_0      |  /* (1 << 8)       0x00000100                                         
  46:./inc/rcc.h   ****   0 * RCC_CFGR_HPRE_1      |  /* (2 << 8)       0x00000200                                         
  47:./inc/rcc.h   ****   0 * RCC_CFGR_HPRE_2      |  /* (4 << 8)       0x00000400                                         
  48:./inc/rcc.h   ****   0 * RCC_CFGR_HPRE_3      |  /* (8 << 8)       0x00000800                                         
  49:./inc/rcc.h   ****   0 * RCC_CFGR_PPRE        |  /* (7 << 12)    PRE1[2:0] bits (APB prescaler)                       
  50:./inc/rcc.h   ****   0 * RCC_CFGR_PPRE_0      |  /* (1 << 12)      0x00001000                                         
  51:./inc/rcc.h   ****   0 * RCC_CFGR_PPRE_1      |  /* (2 << 12)      0x00002000                                         
  52:./inc/rcc.h   ****   0 * RCC_CFGR_PPRE_2      |  /* (4 << 12)      0x00004000                                         
  53:./inc/rcc.h   ****   0 * RCC_CFGR_MCOSEL      |  /* (7 << 24)    MCOSEL [2:0] bits (Clock output selection)           
  54:./inc/rcc.h   ****   0 * RCC_CFGR_MCOSEL_0    |  /* (1 << 24)      0x01000000                                         
  55:./inc/rcc.h   ****   0 * RCC_CFGR_MCOSEL_1    |  /* (2 << 24)      0x02000000                                         
  56:./inc/rcc.h   ****   0 * RCC_CFGR_MCOSEL_2    |  /* (4 << 24)      0x04000000                                         
  57:./inc/rcc.h   ****   0 * RCC_CFGR_MCOPRE      |  /* (7 << 28)    MCO prescaler [2:0]                                  
  58:./inc/rcc.h   ****   0 * RCC_CFGR_MCOPRE_0    |  /* (1 << 28)      0x10000000                                         
  59:./inc/rcc.h   ****   0 * RCC_CFGR_MCOPRE_1    |  /* (2 << 28)      0x20000000                                         
  60:./inc/rcc.h   ****   0 * RCC_CFGR_MCOPRE_2       /* (4 << 28)      0x40000000                                         
  61:./inc/rcc.h   **** )
  62:./inc/rcc.h   **** 
  63:./inc/rcc.h   **** 
  64:./inc/rcc.h   **** #define RCC_CSR (               \
  65:./inc/rcc.h   ****   0 * RCC_CSR_LSION             |  /* (1 << 0)      0x00000001                                     
  66:./inc/rcc.h   ****   0 * RCC_CSR_LSIRDY            |  /* (1 << 1)      0x00000002                                     
  67:./inc/rcc.h   ****   0 * RCC_CSR_RMVF              |  /* (1 << 23)     0x00800000                                     
  68:./inc/rcc.h   ****   0 * RCC_CSR_OBLRSTF           |  /* (1 << 25)     0x02000000                                     
  69:./inc/rcc.h   ****   0 * RCC_CSR_PINRSTF           |  /* (1 << 26)     0x04000000                                     
  70:./inc/rcc.h   ****   0 * RCC_CSR_PWRRSTF           |  /* (1 << 27)     0x08000000                                     
  71:./inc/rcc.h   ****   0 * RCC_CSR_SFTRSTF           |  /* (1 << 28)     0x10000000                                     
  72:./inc/rcc.h   ****   0 * RCC_CSR_IWDGRSTF          |  /* (1 << 29)     0x20000000                                     
  73:./inc/rcc.h   ****   0 * RCC_CSR_WWDGRSTF          |  /* (1 << 30)     0x40000000                                     
  74:./inc/rcc.h   ****   0 * RCC_CSR_LPWRRSTF             /* (1 << 31)     0x80000000                                     
  75:./inc/rcc.h   **** )
  76:./inc/rcc.h   **** 
  77:./inc/rcc.h   **** 
  78:./inc/rcc.h   **** #define RCC_AHBRSTR (         \
  79:./inc/rcc.h   ****   0 * RCC_AHBRSTR_DMA1RST     |  /* (1 << 0)      0x00000001                                       
  80:./inc/rcc.h   ****   0 * RCC_AHBRSTR_FLASHRST    |  /* (1 << 8)      0x00000100                                       
  81:./inc/rcc.h   ****   0 * RCC_AHBRSTR_CRCRST         /* (1 << 12)     0x00001000                                       
  82:./inc/rcc.h   **** )
  83:./inc/rcc.h   **** 
  84:./inc/rcc.h   **** 
  85:./inc/rcc.h   **** #define RCC_AHBSMENR (        \
  86:./inc/rcc.h   ****   0 * RCC_AHBSMENR_DMA1SMEN   |  /* (1 << 0)      0x00000001                                       
  87:./inc/rcc.h   ****   0 * RCC_AHBSMENR_FLASHSMEN  |  /* (1 << 8)      0x00000100                                       
  88:./inc/rcc.h   ****   0 * RCC_AHBSMENR_SRAMSMEN   |  /* (1 << 9)      0x00000200                                       
  89:./inc/rcc.h   ****   0 * RCC_AHBSMENR_CRCSMEN       /* (1 << 12)     0x00001000                                       
  90:./inc/rcc.h   **** )
  91:./inc/rcc.h   **** 
  92:./inc/rcc.h   **** 
ARM GAS  C:\tools\cygwin\tmp\ccTehw5d.s 			page 9


  93:./inc/rcc.h   **** #define RCC_APBRSTR1 (        \
  94:./inc/rcc.h   ****   0 * RCC_APBRSTR1_TIM2RST    |  /* (1 << 0)      0x00000001                                       
  95:./inc/rcc.h   ****   0 * RCC_APBRSTR1_TIM3RST    |  /* (1 << 1)      0x00000002                                       
  96:./inc/rcc.h   ****   0 * RCC_APBRSTR1_SPI2RST    |  /* (1 << 14)     0x00004000                                       
  97:./inc/rcc.h   ****   0 * RCC_APBRSTR1_USART2RST  |  /* (1 << 17)     0x00020000                                       
  98:./inc/rcc.h   ****   0 * RCC_APBRSTR1_LPUART1RST |  /* (1 << 20)     0x00100000                                       
  99:./inc/rcc.h   ****   0 * RCC_APBRSTR1_I2C1RST    |  /* (1 << 21)     0x00200000                                       
 100:./inc/rcc.h   ****   0 * RCC_APBRSTR1_I2C2RST    |  /* (1 << 22)     0x00400000                                       
 101:./inc/rcc.h   ****   0 * RCC_APBRSTR1_DBGRST     |  /* (1 << 27)     0x08000000                                       
 102:./inc/rcc.h   ****   0 * RCC_APBRSTR1_PWRRST     |  /* (1 << 28)     0x10000000                                       
 103:./inc/rcc.h   ****   0 * RCC_APBRSTR1_LPTIM2RST  |  /* (1 << 30)     0x40000000                                       
 104:./inc/rcc.h   ****   0 * RCC_APBRSTR1_LPTIM1RST     /* (1 << 31)     0x80000000                                       
 105:./inc/rcc.h   **** )
 106:./inc/rcc.h   **** 
 107:./inc/rcc.h   **** 
 108:./inc/rcc.h   **** #define RCC_APBRSTR2 (        \
 109:./inc/rcc.h   ****   0 * RCC_APBRSTR2_SYSCFGRST  |  /* (1 << 0)      0x00000001                                       
 110:./inc/rcc.h   ****   0 * RCC_APBRSTR2_TIM1RST    |  /* (1 << 11)     0x00000800                                       
 111:./inc/rcc.h   ****   0 * RCC_APBRSTR2_SPI1RST    |  /* (1 << 12)     0x00001000                                       
 112:./inc/rcc.h   ****   0 * RCC_APBRSTR2_USART1RST  |  /* (1 << 14)     0x00004000                                       
 113:./inc/rcc.h   ****   0 * RCC_APBRSTR2_TIM14RST   |  /* (1 << 15)     0x00008000                                       
 114:./inc/rcc.h   ****   0 * RCC_APBRSTR2_TIM16RST   |  /* (1 << 17)     0x00020000                                       
 115:./inc/rcc.h   ****   0 * RCC_APBRSTR2_TIM17RST   |  /* (1 << 18)     0x00040000                                       
 116:./inc/rcc.h   ****   0 * RCC_APBRSTR2_ADCRST        /* (1 << 20)     0x00100000                                       
 117:./inc/rcc.h   **** )
 118:./inc/rcc.h   **** 
 119:./inc/rcc.h   **** 
 120:./inc/rcc.h   **** #define RCC_APBSMENR1 (         \
 121:./inc/rcc.h   ****   0 * RCC_APBSMENR1_TIM2SMEN    |  /* (1 << 0)      0x00000001                                     
 122:./inc/rcc.h   ****   0 * RCC_APBSMENR1_TIM3SMEN    |  /* (1 << 1)      0x00000002                                     
 123:./inc/rcc.h   ****   0 * RCC_APBSMENR1_RTCAPBSMEN  |  /* (1 << 10)     0x00000400                                     
 124:./inc/rcc.h   ****   0 * RCC_APBSMENR1_WWDGSMEN    |  /* (1 << 11)     0x00000800                                     
 125:./inc/rcc.h   ****   0 * RCC_APBSMENR1_SPI2SMEN    |  /* (1 << 14)     0x00004000                                     
 126:./inc/rcc.h   ****   0 * RCC_APBSMENR1_USART2SMEN  |  /* (1 << 17)     0x00020000                                     
 127:./inc/rcc.h   ****   0 * RCC_APBSMENR1_LPUART1SMEN |  /* (1 << 20)     0x00100000                                     
 128:./inc/rcc.h   ****   0 * RCC_APBSMENR1_I2C1SMEN    |  /* (1 << 21)     0x00200000                                     
 129:./inc/rcc.h   ****   0 * RCC_APBSMENR1_I2C2SMEN    |  /* (1 << 22)     0x00400000                                     
 130:./inc/rcc.h   ****   0 * RCC_APBSMENR1_DBGSMEN     |  /* (1 << 27)     0x08000000                                     
 131:./inc/rcc.h   ****   0 * RCC_APBSMENR1_PWRSMEN     |  /* (1 << 28)     0x10000000                                     
 132:./inc/rcc.h   ****   0 * RCC_APBSMENR1_LPTIM2SMEN  |  /* (1 << 30)     0x40000000                                     
 133:./inc/rcc.h   ****   0 * RCC_APBSMENR1_LPTIM1SMEN     /* (1 << 31)     0x80000000                                     
 134:./inc/rcc.h   **** )
 135:./inc/rcc.h   **** 
 136:./inc/rcc.h   **** 
 137:./inc/rcc.h   **** #define RCC_APBSMENR2 (         \
 138:./inc/rcc.h   ****   0 * RCC_APBSMENR2_SYSCFGSMEN  |  /* (1 << 0)      0x00000001                                     
 139:./inc/rcc.h   ****   0 * RCC_APBSMENR2_TIM1SMEN    |  /* (1 << 11)     0x00000800                                     
 140:./inc/rcc.h   ****   0 * RCC_APBSMENR2_SPI1SMEN    |  /* (1 << 12)     0x00001000                                     
 141:./inc/rcc.h   ****   0 * RCC_APBSMENR2_USART1SMEN  |  /* (1 << 14)     0x00004000                                     
 142:./inc/rcc.h   ****   0 * RCC_APBSMENR2_TIM14SMEN   |  /* (1 << 15)     0x00008000                                     
 143:./inc/rcc.h   ****   0 * RCC_APBSMENR2_TIM16SMEN   |  /* (1 << 17)     0x00020000                                     
 144:./inc/rcc.h   ****   0 * RCC_APBSMENR2_TIM17SMEN   |  /* (1 << 18)     0x00040000                                     
 145:./inc/rcc.h   ****   0 * RCC_APBSMENR2_ADCSMEN        /* (1 << 20)     0x00100000                                     
 146:./inc/rcc.h   **** )
 147:./inc/rcc.h   **** 
 148:./inc/rcc.h   **** 
 149:./inc/rcc.h   **** #define RCC_BDCR (              \
ARM GAS  C:\tools\cygwin\tmp\ccTehw5d.s 			page 10


 150:./inc/rcc.h   ****   0 * RCC_BDCR_LSEON            |  /* (1 << 0)      0x00000001                                     
 151:./inc/rcc.h   ****   0 * RCC_BDCR_LSERDY           |  /* (1 << 1)      0x00000002                                     
 152:./inc/rcc.h   ****   0 * RCC_BDCR_LSEBYP           |  /* (1 << 2)      0x00000004                                     
 153:./inc/rcc.h   ****   0 * RCC_BDCR_LSEDRV           |  /* (3 << 3)      0x00000018                                     
 154:./inc/rcc.h   ****   0 * RCC_BDCR_LSEDRV_0         |  /* (1 << 3)        0x00000008                                   
 155:./inc/rcc.h   ****   0 * RCC_BDCR_LSEDRV_1         |  /* (2 << 3)        0x00000010                                   
 156:./inc/rcc.h   ****   0 * RCC_BDCR_LSECSSON         |  /* (1 << 5)      0x00000020                                     
 157:./inc/rcc.h   ****   0 * RCC_BDCR_LSECSSD          |  /* (1 << 6)      0x00000040                                     
 158:./inc/rcc.h   ****   0 * RCC_BDCR_RTCSEL           |  /* (3 << 8)      0x00000300                                     
 159:./inc/rcc.h   ****   0 * RCC_BDCR_RTCSEL_0         |  /* (1 << 8)        0x00000100                                   
 160:./inc/rcc.h   ****   0 * RCC_BDCR_RTCSEL_1         |  /* (2 << 8)        0x00000200                                   
 161:./inc/rcc.h   ****   0 * RCC_BDCR_RTCEN            |  /* (1 << 15)     0x00008000                                     
 162:./inc/rcc.h   ****   0 * RCC_BDCR_BDRST            |  /* (1 << 16)     0x00010000                                     
 163:./inc/rcc.h   ****   0 * RCC_BDCR_LSCOEN           |  /* (1 << 24)     0x01000000                                     
 164:./inc/rcc.h   ****   0 * RCC_BDCR_LSCOSEL             /* (1 << 25)     0x02000000                                     
 165:./inc/rcc.h   **** )
 166:./inc/rcc.h   **** 
 167:./inc/rcc.h   **** 
 168:./inc/rcc.h   **** #define RCC_CR (      \
 169:./inc/rcc.h   ****   R * RCC_CR_HSION    |  /* (1 << 8)   Internal High Speed clock enable                        0x00
 170:./inc/rcc.h   ****   0 * RCC_CR_HSIKERON |  /* (1 << 9)   Internal High Speed clock enable for some IPs Kernel    0x00
 171:./inc/rcc.h   ****   0 * RCC_CR_HSIRDY   |  /* (1 << 10)  Internal High Speed clock ready flag                    0x00
 172:./inc/rcc.h   ****   0 * RCC_CR_HSIDIV   |  /* (7 << 11)  HSIDIV[13:11] Internal High Speed clock division factor 0x00
 173:./inc/rcc.h   ****   0 * RCC_CR_HSIDIV_0 |  /* (1 << 11)    0x00000800                                                
 174:./inc/rcc.h   ****   0 * RCC_CR_HSIDIV_1 |  /* (2 << 11)    0x00001000                                                
 175:./inc/rcc.h   ****   0 * RCC_CR_HSIDIV_2 |  /* (4 << 11)    0x00002000                                                
 176:./inc/rcc.h   ****   0 * RCC_CR_HSEON    |  /* (1 << 16)  External High Speed clock enable                        0x00
 177:./inc/rcc.h   ****   0 * RCC_CR_HSERDY   |  /* (1 << 17)  External High Speed clock ready                         0x00
 178:./inc/rcc.h   ****   0 * RCC_CR_HSEBYP   |  /* (1 << 18)  External High Speed clock Bypass                        0x00
 179:./inc/rcc.h   ****   0 * RCC_CR_CSSON    |  /* (1 << 19)  HSE Clock Security System enable                        0x00
 180:./inc/rcc.h   ****   R * RCC_CR_PLLON    |  /* (1 << 24)  System PLL clock enable                                 0x01
 181:./inc/rcc.h   ****   0 * RCC_CR_PLLRDY      /* (1 << 25)  System PLL clock ready                                  0x02
 182:./inc/rcc.h   **** )
 183:./inc/rcc.h   **** 
 184:./inc/rcc.h   **** 
 185:./inc/rcc.h   **** #define RCC_CIER (            \
 186:./inc/rcc.h   ****   0 * RCC_CIER_LSIRDYIE       |  /* (1 << 0)      0x00000001                                       
 187:./inc/rcc.h   ****   0 * RCC_CIER_LSERDYIE       |  /* (1 << 1)      0x00000002                                       
 188:./inc/rcc.h   ****   0 * RCC_CIER_HSIRDYIE       |  /* (1 << 3)      0x00000008                                       
 189:./inc/rcc.h   ****   0 * RCC_CIER_HSERDYIE       |  /* (1 << 4)      0x00000010                                       
 190:./inc/rcc.h   ****   0 * RCC_CIER_PLLRDYIE          /* (1 << 5)      0x00000020                                       
 191:./inc/rcc.h   **** )
 192:./inc/rcc.h   **** 
 193:./inc/rcc.h   **** 
 194:./inc/rcc.h   **** #define RCC_CCIPR (             \
 195:./inc/rcc.h   ****   0 * RCC_CCIPR_USART1SEL       |  /* (3 << 0)      0x00000003                                     
 196:./inc/rcc.h   ****   0 * RCC_CCIPR_USART1SEL_0     |  /* (1 << 0)        0x00000001                                   
 197:./inc/rcc.h   ****   0 * RCC_CCIPR_USART1SEL_1     |  /* (2 << 0)        0x00000002                                   
 198:./inc/rcc.h   ****   0 * RCC_CCIPR_LPUART1SEL      |  /* (3 << 10)     0x00000C00                                     
 199:./inc/rcc.h   ****   0 * RCC_CCIPR_LPUART1SEL_0    |  /* (1 << 10)       0x00000400                                   
 200:./inc/rcc.h   ****   0 * RCC_CCIPR_LPUART1SEL_1    |  /* (2 << 10)       0x00000800                                   
 201:./inc/rcc.h   ****   0 * RCC_CCIPR_I2C1SEL         |  /* (3 << 12)     0x00003000                                     
 202:./inc/rcc.h   ****   0 * RCC_CCIPR_I2C1SEL_0       |  /* (1 << 12)       0x00001000                                   
 203:./inc/rcc.h   ****   0 * RCC_CCIPR_I2C1SEL_1       |  /* (2 << 12)       0x00002000                                   
 204:./inc/rcc.h   ****   0 * RCC_CCIPR_I2S1SEL         |  /* (3 << 14)     0x0000C000                                     
 205:./inc/rcc.h   ****   0 * RCC_CCIPR_I2S1SEL_0       |  /* (1 << 14)       0x00004000                                   
 206:./inc/rcc.h   ****   0 * RCC_CCIPR_I2S1SEL_1       |  /* (2 << 14)       0x00008000                                   
ARM GAS  C:\tools\cygwin\tmp\ccTehw5d.s 			page 11


 207:./inc/rcc.h   ****   0 * RCC_CCIPR_LPTIM1SEL       |  /* (3 << 18)     0x000C0000                                     
 208:./inc/rcc.h   ****   0 * RCC_CCIPR_LPTIM1SEL_0     |  /* (1 << 18)       0x00040000                                   
 209:./inc/rcc.h   ****   0 * RCC_CCIPR_LPTIM1SEL_1     |  /* (2 << 18)       0x00080000                                   
 210:./inc/rcc.h   ****   0 * RCC_CCIPR_LPTIM2SEL       |  /* (3 << 20)     0x00300000                                     
 211:./inc/rcc.h   ****   0 * RCC_CCIPR_LPTIM2SEL_0     |  /* (1 << 20)       0x00100000                                   
 212:./inc/rcc.h   ****   0 * RCC_CCIPR_LPTIM2SEL_1     |  /* (2 << 20)       0x00200000                                   
 213:./inc/rcc.h   ****   0 * RCC_CCIPR_TIM1SEL         |  /* (1 << 22)     0x00400000                                     
 214:./inc/rcc.h   ****   0 * RCC_CCIPR_ADCSEL          |  /* (3 << 30)     0xC0000000                                     
 215:./inc/rcc.h   ****   0 * RCC_CCIPR_ADCSEL_0        |  /* (1 << 30)       0x40000000                                   
 216:./inc/rcc.h   ****   0 * RCC_CCIPR_ADCSEL_1           /* (2 << 30)       0x80000000                                   
 217:./inc/rcc.h   **** )
 218:./inc/rcc.h   **** 
 219:./inc/rcc.h   **** 
 220:./inc/rcc.h   **** #define RCC_CIFR (            \
 221:./inc/rcc.h   ****   0 * RCC_CIFR_LSIRDYF        |  /* (1 << 0)      0x00000001                                       
 222:./inc/rcc.h   ****   0 * RCC_CIFR_LSERDYF        |  /* (1 << 1)      0x00000002                                       
 223:./inc/rcc.h   ****   0 * RCC_CIFR_HSIRDYF        |  /* (1 << 3)      0x00000008                                       
 224:./inc/rcc.h   ****   0 * RCC_CIFR_HSERDYF        |  /* (1 << 4)      0x00000010                                       
 225:./inc/rcc.h   ****   0 * RCC_CIFR_PLLRDYF        |  /* (1 << 5)      0x00000020                                       
 226:./inc/rcc.h   ****   0 * RCC_CIFR_CSSF           |  /* (1 << 8)      0x00000100                                       
 227:./inc/rcc.h   ****   0 * RCC_CIFR_LSECSSF           /* (1 << 9)      0x00000200                                       
 228:./inc/rcc.h   **** )
 229:./inc/rcc.h   **** 
 230:./inc/rcc.h   **** 
 231:./inc/rcc.h   **** #define RCC_CICR (            \
 232:./inc/rcc.h   ****   0 * RCC_CICR_LSIRDYC        |  /* (1 << 0)      0x00000001                                       
 233:./inc/rcc.h   ****   0 * RCC_CICR_LSERDYC        |  /* (1 << 1)      0x00000002                                       
 234:./inc/rcc.h   ****   0 * RCC_CICR_HSIRDYC        |  /* (1 << 3)      0x00000008                                       
 235:./inc/rcc.h   ****   0 * RCC_CICR_HSERDYC        |  /* (1 << 4)      0x00000010                                       
 236:./inc/rcc.h   ****   0 * RCC_CICR_PLLRDYC        |  /* (1 << 5)      0x00000020                                       
 237:./inc/rcc.h   ****   0 * RCC_CICR_CSSC           |  /* (1 << 8)      0x00000100                                       
 238:./inc/rcc.h   ****   0 * RCC_CICR_LSECSSC           /* (1 << 9)      0x00000200                                       
 239:./inc/rcc.h   **** )
 240:./inc/rcc.h   **** 
 241:./inc/rcc.h   **** 
 242:./inc/rcc.h   **** #define RCC_ICSCR (       \
 243:./inc/rcc.h   ****   0 * RCC_ICSCR_HSICAL    |  /* (0xFF << 0)  HSICAL[7:0] bits                                      
 244:./inc/rcc.h   ****   0 * RCC_ICSCR_HSICAL_0  |  /* (0x01 << 0)    0x00000001                                          
 245:./inc/rcc.h   ****   0 * RCC_ICSCR_HSICAL_1  |  /* (0x02 << 0)    0x00000002                                          
 246:./inc/rcc.h   ****   0 * RCC_ICSCR_HSICAL_2  |  /* (0x04 << 0)    0x00000004                                          
 247:./inc/rcc.h   ****   0 * RCC_ICSCR_HSICAL_3  |  /* (0x08 << 0)    0x00000008                                          
 248:./inc/rcc.h   ****   0 * RCC_ICSCR_HSICAL_4  |  /* (0x10 << 0)    0x00000010                                          
 249:./inc/rcc.h   ****   0 * RCC_ICSCR_HSICAL_5  |  /* (0x20 << 0)    0x00000020                                          
 250:./inc/rcc.h   ****   0 * RCC_ICSCR_HSICAL_6  |  /* (0x40 << 0)    0x00000040                                          
 251:./inc/rcc.h   ****   0 * RCC_ICSCR_HSICAL_7  |  /* (0x80 << 0)    0x00000080                                          
 252:./inc/rcc.h   ****   0 * RCC_ICSCR_HSITRIM   |  /* (0x7F << 8)  HSITRIM[14:8] bits                                    
 253:./inc/rcc.h   ****   0 * RCC_ICSCR_HSITRIM_0 |  /* (0x01 << 8)    0x00000100                                          
 254:./inc/rcc.h   ****   0 * RCC_ICSCR_HSITRIM_1 |  /* (0x02 << 8)    0x00000200                                          
 255:./inc/rcc.h   ****   0 * RCC_ICSCR_HSITRIM_2 |  /* (0x04 << 8)    0x00000400                                          
 256:./inc/rcc.h   ****   0 * RCC_ICSCR_HSITRIM_3 |  /* (0x08 << 8)    0x00000800                                          
 257:./inc/rcc.h   ****   0 * RCC_ICSCR_HSITRIM_4 |  /* (0x10 << 8)    0x00001000                                          
 258:./inc/rcc.h   ****   0 * RCC_ICSCR_HSITRIM_5 |  /* (0x20 << 8)    0x00002000                                          
 259:./inc/rcc.h   ****   0 * RCC_ICSCR_HSITRIM_6    /* (0x40 << 8)    0x00004000                                          
 260:./inc/rcc.h   **** )
 261:./inc/rcc.h   **** 
 262:./inc/rcc.h   **** 
 263:./inc/rcc.h   **** #define RCC_IOPRSTR (         \
ARM GAS  C:\tools\cygwin\tmp\ccTehw5d.s 			page 12


 264:./inc/rcc.h   ****   0 * RCC_IOPRSTR_GPIOARST    |  /* (1 << 0)      0x00000001                                       
 265:./inc/rcc.h   ****   0 * RCC_IOPRSTR_GPIOBRST    |  /* (1 << 1)      0x00000002                                       
 266:./inc/rcc.h   ****   0 * RCC_IOPRSTR_GPIOCRST    |  /* (1 << 2)      0x00000004                                       
 267:./inc/rcc.h   ****   0 * RCC_IOPRSTR_GPIODRST    |  /* (1 << 3)      0x00000008                                       
 268:./inc/rcc.h   ****   0 * RCC_IOPRSTR_GPIOFRST       /* (1 << 5)      0x00000020                                       
 269:./inc/rcc.h   **** )
 270:./inc/rcc.h   **** 
 271:./inc/rcc.h   **** 
 272:./inc/rcc.h   **** #define RCC_IOPSMENR (        \
 273:./inc/rcc.h   ****   0 * RCC_IOPSMENR_GPIOASMEN  |  /* (1 << 0)      0x00000001                                       
 274:./inc/rcc.h   ****   0 * RCC_IOPSMENR_GPIOBSMEN  |  /* (1 << 1)      0x00000002                                       
 275:./inc/rcc.h   ****   0 * RCC_IOPSMENR_GPIOCSMEN  |  /* (1 << 2)      0x00000004                                       
 276:./inc/rcc.h   ****   0 * RCC_IOPSMENR_GPIODSMEN  |  /* (1 << 3)      0x00000008                                       
 277:./inc/rcc.h   ****   0 * RCC_IOPSMENR_GPIOFSMEN     /* (1 << 5)      0x00000020                                       
 278:./inc/rcc.h   **** )
 279:./inc/rcc.h   **** 
 280:./inc/rcc.h   **** 
 281:./inc/rcc.h   **** #define RCC_PLLCFGR (         \
 282:./inc/rcc.h   ****   0 * RCC_PLLCFGR_PLLSRC      |  /* (3 << 0)      0x00000003                                       
 283:./inc/rcc.h   ****   0 * RCC_PLLCFGR_PLLSRC_0    |  /* (1 << 0)        0x00000001                                     
 284:./inc/rcc.h   ****   0 * RCC_PLLCFGR_PLLSRC_1    |  /* (2 << 0)        0x00000002                                     
 285:./inc/rcc.h   ****   0 * RCC_PLLCFGR_PLLSRC_NONE |  /* 0x00000000    No clock sent to PLL                             
 286:./inc/rcc.h   ****   0 * RCC_PLLCFGR_PLLSRC_HSI  |  /* (1 << 1)      HSI source clock selected                        
 287:./inc/rcc.h   ****   0 * RCC_PLLCFGR_PLLSRC_HSE  |  /* (3 << 0)      HSE source clock selected                        
 288:./inc/rcc.h   ****   0 * RCC_PLLCFGR_PLLM        |  /* (7 << 4)      0x00000070                                       
 289:./inc/rcc.h   ****   0 * RCC_PLLCFGR_PLLM_0      |  /* (1 << 4)        0x00000010                                     
 290:./inc/rcc.h   ****   0 * RCC_PLLCFGR_PLLM_1      |  /* (2 << 4)        0x00000020                                     
 291:./inc/rcc.h   ****   0 * RCC_PLLCFGR_PLLM_2      |  /* (4 << 4)        0x00000040                                     
 292:./inc/rcc.h   ****   0 * RCC_PLLCFGR_PLLN        |  /* (0x7F << 8)   0x00007F00                                       
 293:./inc/rcc.h   ****   PLLN_0 * RCC_PLLCFGR_PLLN_0      |  /* (0x01 << 8)     0x00000100                                
 294:./inc/rcc.h   ****   PLLN_1 * RCC_PLLCFGR_PLLN_1      |  /* (0x02 << 8)     0x00000200                                
 295:./inc/rcc.h   ****   PLLN_2 * RCC_PLLCFGR_PLLN_2      |  /* (0x04 << 8)     0x00000400                                
 296:./inc/rcc.h   ****   PLLN_3 * RCC_PLLCFGR_PLLN_3      |  /* (0x08 << 8)     0x00000800                                
 297:./inc/rcc.h   ****   PLLN_4 * RCC_PLLCFGR_PLLN_4      |  /* (0x10 << 8)     0x00001000                                
 298:./inc/rcc.h   ****   PLLN_5 * RCC_PLLCFGR_PLLN_5      |  /* (0x20 << 8)     0x00002000                                
 299:./inc/rcc.h   ****   PLLN_6 * RCC_PLLCFGR_PLLN_6      |  /* (0x40 << 8)     0x00004000                                
 300:./inc/rcc.h   ****   0 * RCC_PLLCFGR_PLLPEN      |  /* (1 << 16)     0x00010000                                       
 301:./inc/rcc.h   ****   0 * RCC_PLLCFGR_PLLP        |  /* (0x1F << 17)  0x003E0000                                       
 302:./inc/rcc.h   ****   0 * RCC_PLLCFGR_PLLP_0      |  /* (0x01 << 17)    0x00020000                                     
 303:./inc/rcc.h   ****   0 * RCC_PLLCFGR_PLLP_1      |  /* (0x02 << 17)    0x00040000                                     
 304:./inc/rcc.h   ****   0 * RCC_PLLCFGR_PLLP_2      |  /* (0x04 << 17)    0x00080000                                     
 305:./inc/rcc.h   ****   0 * RCC_PLLCFGR_PLLP_3      |  /* (0x08 << 17)    0x00100000                                     
 306:./inc/rcc.h   ****   0 * RCC_PLLCFGR_PLLP_4      |  /* (0x10 << 17)    0x00200000                                     
 307:./inc/rcc.h   ****   0 * RCC_PLLCFGR_PLLQEN      |  /* (1 << 24)     0x01000000                                       
 308:./inc/rcc.h   ****   0 * RCC_PLLCFGR_PLLQ        |  /* (7 << 25)     0x0E000000                                       
 309:./inc/rcc.h   ****   0 * RCC_PLLCFGR_PLLQ_0      |  /* (1 << 25)       0x02000000                                     
 310:./inc/rcc.h   ****   0 * RCC_PLLCFGR_PLLQ_1      |  /* (2 << 25)       0x04000000                                     
 311:./inc/rcc.h   ****   0 * RCC_PLLCFGR_PLLQ_2      |  /* (4 << 25)       0x08000000                                     
 312:./inc/rcc.h   ****   0 * RCC_PLLCFGR_PLLREN      |  /* (1 << 28)     0x10000000                                       
 313:./inc/rcc.h   ****   0 * RCC_PLLCFGR_PLLR        |  /* (7 << 29)     0xE0000000                                       
 314:./inc/rcc.h   ****   0 * RCC_PLLCFGR_PLLR_0      |  /* (1 << 29)       0x20000000                                     
 315:./inc/rcc.h   ****   0 * RCC_PLLCFGR_PLLR_1      |  /* (2 << 29)       0x40000000                                     
 316:./inc/rcc.h   ****   0 * RCC_PLLCFGR_PLLR_2         /* (4 << 29)       0x80000000                                     
 317:./inc/rcc.h   **** )
 318:./inc/rcc.h   **** 
 319:./inc/rcc.h   **** #if !defined(DMA1_EN)
 320:./inc/rcc.h   ****   #define DMA1_EN 0
ARM GAS  C:\tools\cygwin\tmp\ccTehw5d.s 			page 13


 321:./inc/rcc.h   **** #endif
 322:./inc/rcc.h   **** 
 323:./inc/rcc.h   **** #if !defined(FLASH_EN)
 324:./inc/rcc.h   ****   #define FLASH_EN 0
 325:./inc/rcc.h   **** #endif
 326:./inc/rcc.h   **** 
 327:./inc/rcc.h   **** #if !defined(CRC_EN)
 328:./inc/rcc.h   ****   #define CRC_EN 0
 329:./inc/rcc.h   **** #endif
 330:./inc/rcc.h   **** 
 331:./inc/rcc.h   **** 
 332:./inc/rcc.h   **** #define RCC_AHBENR (                      \
 333:./inc/rcc.h   ****   DMA1_EN       * RCC_AHBENR_DMA1EN       |  /* (1 << 0)      0x00000001                           
 334:./inc/rcc.h   ****   FLASH_EN      * RCC_AHBENR_FLASHEN      |  /* (1 << 8)      0x00000100                           
 335:./inc/rcc.h   ****   CRC_EN        * RCC_AHBENR_CRCEN           /* (1 << 12)     0x00001000                           
 336:./inc/rcc.h   **** )
 337:./inc/rcc.h   **** 
 338:./inc/rcc.h   **** #if !defined(GPIOA_EN)
 339:./inc/rcc.h   ****   #define GPIOA_EN 0
 340:./inc/rcc.h   **** #endif
 341:./inc/rcc.h   **** 
 342:./inc/rcc.h   **** #if !defined(GPIOB_EN)
 343:./inc/rcc.h   ****   #define GPIOB_EN 0
 344:./inc/rcc.h   **** #endif
 345:./inc/rcc.h   **** 
 346:./inc/rcc.h   **** #if !defined(GPIOC_EN)
 347:./inc/rcc.h   ****   #define GPIOC_EN 0
 348:./inc/rcc.h   **** #endif
 349:./inc/rcc.h   **** 
 350:./inc/rcc.h   **** #if !defined(GPIOD_EN)
 351:./inc/rcc.h   ****   #define GPIOD_EN 0
 352:./inc/rcc.h   **** #endif
 353:./inc/rcc.h   **** 
 354:./inc/rcc.h   **** #if !defined(GPIOF_EN)
 355:./inc/rcc.h   ****   #define GPIOF_EN 0
 356:./inc/rcc.h   **** #endif
 357:./inc/rcc.h   **** 
 358:./inc/rcc.h   **** 
 359:./inc/rcc.h   **** #define RCC_IOPENR (                      \
 360:./inc/rcc.h   ****   GPIOA_EN      * RCC_IOPENR_GPIOAEN      |  /* (1 << 0)      0x00000001                           
 361:./inc/rcc.h   ****   GPIOB_EN      * RCC_IOPENR_GPIOBEN      |  /* (1 << 1)      0x00000002                           
 362:./inc/rcc.h   ****   GPIOC_EN      * RCC_IOPENR_GPIOCEN      |  /* (1 << 2)      0x00000004                           
 363:./inc/rcc.h   ****   GPIOD_EN      * RCC_IOPENR_GPIODEN      |  /* (1 << 3)      0x00000008                           
 364:./inc/rcc.h   ****   GPIOF_EN      * RCC_IOPENR_GPIOFEN         /* (1 << 5)      0x00000020                           
 365:./inc/rcc.h   **** )
 366:./inc/rcc.h   **** 
 367:./inc/rcc.h   **** #if !defined(SYSCFG_EN)
 368:./inc/rcc.h   ****   #define SYSCFG_EN 0
 369:./inc/rcc.h   **** #endif
 370:./inc/rcc.h   **** 
 371:./inc/rcc.h   **** #if !defined(TIM1_EN)
 372:./inc/rcc.h   ****   #define TIM1_EN 0
 373:./inc/rcc.h   **** #endif
 374:./inc/rcc.h   **** 
 375:./inc/rcc.h   **** #if !defined(SPI1_EN)
 376:./inc/rcc.h   ****   #define SPI1_EN 0
 377:./inc/rcc.h   **** #endif
ARM GAS  C:\tools\cygwin\tmp\ccTehw5d.s 			page 14


 378:./inc/rcc.h   **** 
 379:./inc/rcc.h   **** #if !defined(USART1_EN)
 380:./inc/rcc.h   ****   #define USART1_EN 0
 381:./inc/rcc.h   **** #endif
 382:./inc/rcc.h   **** 
 383:./inc/rcc.h   **** #if !defined(TIM14_EN)
 384:./inc/rcc.h   ****   #define TIM14_EN 0
 385:./inc/rcc.h   **** #endif
 386:./inc/rcc.h   **** 
 387:./inc/rcc.h   **** #if !defined(TIM16_EN)
 388:./inc/rcc.h   ****   #define TIM16_EN 0
 389:./inc/rcc.h   **** #endif
 390:./inc/rcc.h   **** 
 391:./inc/rcc.h   **** #if !defined(TIM17_EN)
 392:./inc/rcc.h   ****   #define TIM17_EN 0
 393:./inc/rcc.h   **** #endif
 394:./inc/rcc.h   **** 
 395:./inc/rcc.h   **** #if !defined(ADC_EN)
 396:./inc/rcc.h   ****   #define ADC_EN 0
 397:./inc/rcc.h   **** #endif
 398:./inc/rcc.h   **** 
 399:./inc/rcc.h   **** 
 400:./inc/rcc.h   **** #define RCC_APBENR2 (                     \
 401:./inc/rcc.h   ****   SYSCFG_EN     * RCC_APBENR2_SYSCFGEN    |  /* (1 << 0)      0x00000001                           
 402:./inc/rcc.h   ****   TIM1_EN       * RCC_APBENR2_TIM1EN      |  /* (1 << 11)     0x00000800                           
 403:./inc/rcc.h   ****   SPI1_EN       * RCC_APBENR2_SPI1EN      |  /* (1 << 12)     0x00001000                           
 404:./inc/rcc.h   ****   USART1_EN     * RCC_APBENR2_USART1EN    |  /* (1 << 14)     0x00004000                           
 405:./inc/rcc.h   ****   TIM14_EN      * RCC_APBENR2_TIM14EN     |  /* (1 << 15)     0x00008000                           
 406:./inc/rcc.h   ****   TIM16_EN      * RCC_APBENR2_TIM16EN     |  /* (1 << 17)     0x00020000                           
 407:./inc/rcc.h   ****   TIM17_EN      * RCC_APBENR2_TIM17EN     |  /* (1 << 18)     0x00040000                           
 408:./inc/rcc.h   ****   ADC_EN        * RCC_APBENR2_ADCEN          /* (1 << 20)     0x00100000                           
 409:./inc/rcc.h   **** )
 410:./inc/rcc.h   **** 
 411:./inc/rcc.h   **** #if !defined(TIM2_EN)
 412:./inc/rcc.h   ****   #define TIM2_EN 0
 413:./inc/rcc.h   **** #endif
 414:./inc/rcc.h   **** 
 415:./inc/rcc.h   **** #if !defined(TIM3_EN)
 416:./inc/rcc.h   ****   #define TIM3_EN 0
 417:./inc/rcc.h   **** #endif
 418:./inc/rcc.h   **** 
 419:./inc/rcc.h   **** #if !defined(RTCAPB_EN)
 420:./inc/rcc.h   ****   #define RTCAPB_EN 0
 421:./inc/rcc.h   **** #endif
 422:./inc/rcc.h   **** 
 423:./inc/rcc.h   **** #if !defined(WWDG_EN)
 424:./inc/rcc.h   ****   #define WWDG_EN 0
 425:./inc/rcc.h   **** #endif
 426:./inc/rcc.h   **** 
 427:./inc/rcc.h   **** #if !defined(SPI2_EN)
 428:./inc/rcc.h   ****   #define SPI2_EN 0
 429:./inc/rcc.h   **** #endif
 430:./inc/rcc.h   **** 
 431:./inc/rcc.h   **** #if !defined(USART2_EN)
 432:./inc/rcc.h   ****   #define USART2_EN 0
 433:./inc/rcc.h   **** #endif
 434:./inc/rcc.h   **** 
ARM GAS  C:\tools\cygwin\tmp\ccTehw5d.s 			page 15


 435:./inc/rcc.h   **** #if !defined(LPUART1_EN)
 436:./inc/rcc.h   ****   #define LPUART1_EN 0
 437:./inc/rcc.h   **** #endif
 438:./inc/rcc.h   **** 
 439:./inc/rcc.h   **** #if !defined(I2C1_EN)
 440:./inc/rcc.h   ****   #define I2C1_EN 0
 441:./inc/rcc.h   **** #endif
 442:./inc/rcc.h   **** 
 443:./inc/rcc.h   **** #if !defined(I2C2_EN)
 444:./inc/rcc.h   ****   #define I2C2_EN 0
 445:./inc/rcc.h   **** #endif
 446:./inc/rcc.h   **** 
 447:./inc/rcc.h   **** #if !defined(DBG_EN)
 448:./inc/rcc.h   ****   #define DBG_EN 0
 449:./inc/rcc.h   **** #endif
 450:./inc/rcc.h   **** 
 451:./inc/rcc.h   **** #if !defined(PWR_EN)
 452:./inc/rcc.h   ****   #define PWR_EN 0
 453:./inc/rcc.h   **** #endif
 454:./inc/rcc.h   **** 
 455:./inc/rcc.h   **** #if !defined(LPTIM2_EN)
 456:./inc/rcc.h   ****   #define LPTIM2_EN 0
 457:./inc/rcc.h   **** #endif
 458:./inc/rcc.h   **** 
 459:./inc/rcc.h   **** #if !defined(LPTIM1_EN)
 460:./inc/rcc.h   ****   #define LPTIM1_EN 0
 461:./inc/rcc.h   **** #endif
 462:./inc/rcc.h   **** 
 463:./inc/rcc.h   **** 
 464:./inc/rcc.h   **** #define RCC_APBENR1 (                     \
 465:./inc/rcc.h   ****   TIM2_EN       * RCC_APBENR1_TIM2EN      |  /* (1 << 0)      0x00000001                           
 466:./inc/rcc.h   ****   TIM3_EN       * RCC_APBENR1_TIM3EN      |  /* (1 << 1)      0x00000002                           
 467:./inc/rcc.h   ****   RTCAPB_EN     * RCC_APBENR1_RTCAPBEN    |  /* (1 << 10)     0x00000400                           
 468:./inc/rcc.h   ****   WWDG_EN       * RCC_APBENR1_WWDGEN      |  /* (1 << 11)     0x00000800                           
 469:./inc/rcc.h   ****   SPI2_EN       * RCC_APBENR1_SPI2EN      |  /* (1 << 14)     0x00004000                           
 470:./inc/rcc.h   ****   USART2_EN     * RCC_APBENR1_USART2EN    |  /* (1 << 17)     0x00020000                           
 471:./inc/rcc.h   ****   LPUART1_EN    * RCC_APBENR1_LPUART1EN   |  /* (1 << 20)     0x00100000                           
 472:./inc/rcc.h   ****   I2C1_EN       * RCC_APBENR1_I2C1EN      |  /* (1 << 21)     0x00200000                           
 473:./inc/rcc.h   ****   I2C2_EN       * RCC_APBENR1_I2C2EN      |  /* (1 << 22)     0x00400000                           
 474:./inc/rcc.h   ****   DBG_EN        * RCC_APBENR1_DBGEN       |  /* (1 << 27)     0x08000000                           
 475:./inc/rcc.h   ****   PWR_EN        * RCC_APBENR1_PWREN       |  /* (1 << 28)     0x10000000                           
 476:./inc/rcc.h   ****   LPTIM2_EN     * RCC_APBENR1_LPTIM2EN    |  /* (1 << 30)     0x40000000                           
 477:./inc/rcc.h   ****   LPTIM1_EN     * RCC_APBENR1_LPTIM1EN       /* (1 << 31)     0x80000000                           
 478:./inc/rcc.h   **** )
 479:./inc/rcc.h   **** 
 480:./inc/rcc.h   **** 
 481:./inc/rcc.h   **** __STATIC_FORCEINLINE void init_rcc(void) {
 192              		.loc 3 481 27 view .LVU18
 193              	.LBB33:
 482:./inc/rcc.h   **** 
 483:./inc/rcc.h   ****   /* Perform pre-configuration of the hardware */
 484:./inc/rcc.h   ****   configure_flash();
 194              		.loc 3 484 3 view .LVU19
 485:./inc/rcc.h   **** 
 486:./inc/rcc.h   ****   #if defined RCC_AHBENR
 487:./inc/rcc.h   ****     #if RCC_AHBENR != 0
 488:./inc/rcc.h   ****       RCC->AHBENR = RCC_AHBENR; /* 0x40021038: RCC AHB peripherals clock enable register, Address o
ARM GAS  C:\tools\cygwin\tmp\ccTehw5d.s 			page 16


 489:./inc/rcc.h   ****     #endif
 490:./inc/rcc.h   ****   #else
 491:./inc/rcc.h   ****     #define RCC_AHBENR 0
 492:./inc/rcc.h   ****   #endif
 493:./inc/rcc.h   **** 
 494:./inc/rcc.h   ****   #if defined RCC_CFGR
 495:./inc/rcc.h   ****     #if RCC_CFGR != 0
 496:./inc/rcc.h   ****       RCC->CFGR = RCC_CFGR; /* 0x40021008: RCC Regulated Domain Clocks Configuration Register, Addr
 497:./inc/rcc.h   ****     #endif
 498:./inc/rcc.h   ****   #else
 499:./inc/rcc.h   ****     #define RCC_CFGR 0
 500:./inc/rcc.h   ****   #endif
 501:./inc/rcc.h   **** 
 502:./inc/rcc.h   ****   #if defined RCC_CSR
 503:./inc/rcc.h   ****     #if RCC_CSR != 0
 504:./inc/rcc.h   ****       RCC->CSR = RCC_CSR; /* 0x40021060: RCC Unregulated Domain Clock Control and Status Register, 
 505:./inc/rcc.h   ****     #endif
 506:./inc/rcc.h   ****   #else
 507:./inc/rcc.h   ****     #define RCC_CSR 0
 508:./inc/rcc.h   ****   #endif
 509:./inc/rcc.h   **** 
 510:./inc/rcc.h   ****   #if defined RCC_AHBRSTR
 511:./inc/rcc.h   ****     #if RCC_AHBRSTR != 0
 512:./inc/rcc.h   ****       RCC->AHBRSTR = RCC_AHBRSTR; /* 0x40021028: RCC AHB peripherals reset register, Address offset
 513:./inc/rcc.h   ****     #endif
 514:./inc/rcc.h   ****   #else
 515:./inc/rcc.h   ****     #define RCC_AHBRSTR 0
 516:./inc/rcc.h   ****   #endif
 517:./inc/rcc.h   **** 
 518:./inc/rcc.h   ****   #if defined RCC_AHBSMENR
 519:./inc/rcc.h   ****     #if RCC_AHBSMENR != 0
 520:./inc/rcc.h   ****       RCC->AHBSMENR = RCC_AHBSMENR; /* 0x40021048: RCC AHB peripheral clocks enable in sleep mode r
 521:./inc/rcc.h   ****     #endif
 522:./inc/rcc.h   ****   #else
 523:./inc/rcc.h   ****     #define RCC_AHBSMENR 0
 524:./inc/rcc.h   ****   #endif
 525:./inc/rcc.h   **** 
 526:./inc/rcc.h   ****   #if defined RCC_APBENR1
 527:./inc/rcc.h   ****     #if RCC_APBENR1 != 0
 528:./inc/rcc.h   ****       RCC->APBENR1 = RCC_APBENR1; /* 0x4002103C: RCC APB peripherals clock enable register1, Addres
 529:./inc/rcc.h   ****     #endif
 530:./inc/rcc.h   ****   #else
 531:./inc/rcc.h   ****     #define RCC_APBENR1 0
 532:./inc/rcc.h   ****   #endif
 533:./inc/rcc.h   **** 
 534:./inc/rcc.h   ****   #if defined RCC_APBENR2
 535:./inc/rcc.h   ****     #if RCC_APBENR2 != 0
 536:./inc/rcc.h   ****       RCC->APBENR2 = RCC_APBENR2; /* 0x40021040: RCC APB peripherals clock enable register2, Addres
 537:./inc/rcc.h   ****     #endif
 538:./inc/rcc.h   ****   #else
 539:./inc/rcc.h   ****     #define RCC_APBENR2 0
 540:./inc/rcc.h   ****   #endif
 541:./inc/rcc.h   **** 
 542:./inc/rcc.h   ****   #if defined RCC_APBRSTR1
 543:./inc/rcc.h   ****     #if RCC_APBRSTR1 != 0
 544:./inc/rcc.h   ****       RCC->APBRSTR1 = RCC_APBRSTR1; /* 0x4002102C: RCC APB peripherals reset register 1, Address of
 545:./inc/rcc.h   ****     #endif
ARM GAS  C:\tools\cygwin\tmp\ccTehw5d.s 			page 17


 546:./inc/rcc.h   ****   #else
 547:./inc/rcc.h   ****     #define RCC_APBRSTR1 0
 548:./inc/rcc.h   ****   #endif
 549:./inc/rcc.h   **** 
 550:./inc/rcc.h   ****   #if defined RCC_APBRSTR2
 551:./inc/rcc.h   ****     #if RCC_APBRSTR2 != 0
 552:./inc/rcc.h   ****       RCC->APBRSTR2 = RCC_APBRSTR2; /* 0x40021030: RCC APB peripherals reset register 2, Address of
 553:./inc/rcc.h   ****     #endif
 554:./inc/rcc.h   ****   #else
 555:./inc/rcc.h   ****     #define RCC_APBRSTR2 0
 556:./inc/rcc.h   ****   #endif
 557:./inc/rcc.h   **** 
 558:./inc/rcc.h   ****   #if defined RCC_APBSMENR1
 559:./inc/rcc.h   ****     #if RCC_APBSMENR1 != 0
 560:./inc/rcc.h   ****       RCC->APBSMENR1 = RCC_APBSMENR1; /* 0x4002104C: RCC APB peripheral clocks enable in sleep mode
 561:./inc/rcc.h   ****     #endif
 562:./inc/rcc.h   ****   #else
 563:./inc/rcc.h   ****     #define RCC_APBSMENR1 0
 564:./inc/rcc.h   ****   #endif
 565:./inc/rcc.h   **** 
 566:./inc/rcc.h   ****   #if defined RCC_APBSMENR2
 567:./inc/rcc.h   ****     #if RCC_APBSMENR2 != 0
 568:./inc/rcc.h   ****       RCC->APBSMENR2 = RCC_APBSMENR2; /* 0x40021050: RCC APB peripheral clocks enable in sleep mode
 569:./inc/rcc.h   ****     #endif
 570:./inc/rcc.h   ****   #else
 571:./inc/rcc.h   ****     #define RCC_APBSMENR2 0
 572:./inc/rcc.h   ****   #endif
 573:./inc/rcc.h   **** 
 574:./inc/rcc.h   ****   #if defined RCC_BDCR
 575:./inc/rcc.h   ****     #if RCC_BDCR != 0
 576:./inc/rcc.h   ****       RCC->BDCR = RCC_BDCR; /* 0x4002105C: RCC Backup Domain Control Register, Address offset: 0x5C
 577:./inc/rcc.h   ****     #endif
 578:./inc/rcc.h   ****   #else
 579:./inc/rcc.h   ****     #define RCC_BDCR 0
 580:./inc/rcc.h   ****   #endif
 581:./inc/rcc.h   **** 
 582:./inc/rcc.h   ****   #if defined RCC_CCIPR
 583:./inc/rcc.h   ****     #if RCC_CCIPR != 0
 584:./inc/rcc.h   ****       RCC->CCIPR = RCC_CCIPR; /* 0x40021054: RCC Peripherals Independent Clocks Configuration Regis
 585:./inc/rcc.h   ****     #endif
 586:./inc/rcc.h   ****   #else
 587:./inc/rcc.h   ****     #define RCC_CCIPR 0
 588:./inc/rcc.h   ****   #endif
 589:./inc/rcc.h   **** 
 590:./inc/rcc.h   ****   #if defined RCC_CIER
 591:./inc/rcc.h   ****     #if RCC_CIER != 0
 592:./inc/rcc.h   ****       RCC->CIER = RCC_CIER; /* 0x40021018: RCC Clock Interrupt Enable Register, Address offset: 0x1
 593:./inc/rcc.h   ****     #endif
 594:./inc/rcc.h   ****   #else
 595:./inc/rcc.h   ****     #define RCC_CIER 0
 596:./inc/rcc.h   ****   #endif
 597:./inc/rcc.h   **** 
 598:./inc/rcc.h   ****   #if defined RCC_CIFR
 599:./inc/rcc.h   ****     #if RCC_CIFR != 0
 600:./inc/rcc.h   ****       RCC->CIFR = RCC_CIFR; /* 0x4002101C: RCC Clock Interrupt Flag Register, Address offset: 0x1C 
 601:./inc/rcc.h   ****     #endif
 602:./inc/rcc.h   ****   #else
ARM GAS  C:\tools\cygwin\tmp\ccTehw5d.s 			page 18


 603:./inc/rcc.h   ****     #define RCC_CIFR 0
 604:./inc/rcc.h   ****   #endif
 605:./inc/rcc.h   **** 
 606:./inc/rcc.h   ****   #if defined RCC_CICR
 607:./inc/rcc.h   ****     #if RCC_CICR != 0
 608:./inc/rcc.h   ****       RCC->CICR = RCC_CICR; /* 0x40021020: RCC Clock Interrupt Clear Register, Address offset: 0x20
 609:./inc/rcc.h   ****     #endif
 610:./inc/rcc.h   ****   #else
 611:./inc/rcc.h   ****     #define RCC_CICR 0
 612:./inc/rcc.h   ****   #endif
 613:./inc/rcc.h   **** 
 614:./inc/rcc.h   ****   #if defined RCC_ICSCR
 615:./inc/rcc.h   ****     #if RCC_ICSCR != 0
 616:./inc/rcc.h   ****       RCC->ICSCR = RCC_ICSCR; /* 0x40021004: RCC Internal Clock Sources Calibration Register, Addre
 617:./inc/rcc.h   ****     #endif
 618:./inc/rcc.h   ****   #else
 619:./inc/rcc.h   ****     #define RCC_ICSCR 0
 620:./inc/rcc.h   ****   #endif
 621:./inc/rcc.h   **** 
 622:./inc/rcc.h   ****   #if defined RCC_IOPENR
 623:./inc/rcc.h   ****     #if RCC_IOPENR != 0
 624:./inc/rcc.h   ****       RCC->IOPENR = RCC_IOPENR; /* 0x40021034: RCC IO port enable register, Address offset: 0x34   
 195              		.loc 3 624 7 view .LVU20
 196              	@ ./inc/rcc.h:624:       RCC->IOPENR = RCC_IOPENR; /* 0x40021034: RCC IO port enable register, Addr
 197              		.loc 3 624 19 is_stmt 0 view .LVU21
 198 0002 144B     		ldr	r3, .L16	@ tmp122,
 199 0004 0122     		movs	r2, #1	@ tmp123,
 200 0006 5A63     		str	r2, [r3, #52]	@ tmp123, MEM[(struct RCC_TypeDef *)1073876992B].IOPENR
 625:./inc/rcc.h   ****     #endif
 626:./inc/rcc.h   ****   #else
 627:./inc/rcc.h   ****     #define RCC_IOPENR 0
 628:./inc/rcc.h   ****   #endif
 629:./inc/rcc.h   **** 
 630:./inc/rcc.h   ****   #if defined RCC_IOPRSTR
 631:./inc/rcc.h   ****     #if RCC_IOPRSTR != 0
 632:./inc/rcc.h   ****       RCC->IOPRSTR = RCC_IOPRSTR; /* 0x40021024: RCC IO port reset register, Address offset: 0x24  
 633:./inc/rcc.h   ****     #endif
 634:./inc/rcc.h   ****   #else
 635:./inc/rcc.h   ****     #define RCC_IOPRSTR 0
 636:./inc/rcc.h   ****   #endif
 637:./inc/rcc.h   **** 
 638:./inc/rcc.h   ****   #if defined RCC_IOPSMENR
 639:./inc/rcc.h   ****     #if RCC_IOPSMENR != 0
 640:./inc/rcc.h   ****       RCC->IOPSMENR = RCC_IOPSMENR; /* 0x40021044: RCC IO port clocks enable in sleep mode register
 641:./inc/rcc.h   ****     #endif
 642:./inc/rcc.h   ****   #else
 643:./inc/rcc.h   ****     #define RCC_IOPSMENR 0
 644:./inc/rcc.h   ****   #endif
 645:./inc/rcc.h   **** 
 646:./inc/rcc.h   ****   #if defined RCC_PLLCFGR
 647:./inc/rcc.h   ****     #if RCC_PLLCFGR != 0
 648:./inc/rcc.h   ****       RCC->PLLCFGR = RCC_PLLCFGR; /* 0x4002100C: RCC System PLL configuration Register, Address off
 201              		.loc 3 648 7 is_stmt 1 view .LVU22
 202              	@ ./inc/rcc.h:648:       RCC->PLLCFGR = RCC_PLLCFGR; /* 0x4002100C: RCC System PLL configuration Re
 203              		.loc 3 648 20 is_stmt 0 view .LVU23
 204 0008 8021     		movs	r1, #128	@ tmp125,
 205 000a 8900     		lsls	r1, r1, #2	@ tmp125, tmp125,
ARM GAS  C:\tools\cygwin\tmp\ccTehw5d.s 			page 19


 206 000c D960     		str	r1, [r3, #12]	@ tmp125, MEM[(struct RCC_TypeDef *)1073876992B].PLLCFGR
 649:./inc/rcc.h   ****     #endif
 650:./inc/rcc.h   ****   #else
 651:./inc/rcc.h   ****     #define RCC_PLLCFGR 0
 652:./inc/rcc.h   ****   #endif
 653:./inc/rcc.h   **** 
 654:./inc/rcc.h   ****   #if defined RCC_CR
 655:./inc/rcc.h   ****     #if RCC_CR != 0
 656:./inc/rcc.h   ****       RCC->CR = RCC_CR; /* 0x40021000: RCC Clock Sources Control Register, Address offset: 0x00    
 657:./inc/rcc.h   ****     #endif
 658:./inc/rcc.h   ****   #else
 659:./inc/rcc.h   ****     #define RCC_CR 0
 660:./inc/rcc.h   ****   #endif
 661:./inc/rcc.h   **** 
 662:./inc/rcc.h   **** #if 0
 663:./inc/rcc.h   ****   NVIC_SetPriority(RCC_IRQn, NVIC_EncodePriority(NVIC_GetPriorityGrouping(), 0, 0));
 664:./inc/rcc.h   ****   NVIC_ClearPendingIRQ(RCC_IRQn);
 665:./inc/rcc.h   ****   NVIC_EnableIRQ(RCC_IRQn);
 666:./inc/rcc.h   **** #endif
 667:./inc/rcc.h   ****   
 668:./inc/rcc.h   ****   /* Proceed with additional actions */
 669:./inc/rcc.h   ****   wait_for_clock_stable();
 207              		.loc 3 669 3 is_stmt 1 view .LVU24
 208              	.LBE33:
 209              	.LBE32:
 138:./inc/main.h  **** 
 210              		.loc 2 138 3 view .LVU25
 211              	.LBB34:
 212              	.LBI34:
 213              		.file 4 "./inc/gpio.h"
   1:./inc/gpio.h  **** #ifndef __GPIO_H__
   2:./inc/gpio.h  **** #define __GPIO_H__
   3:./inc/gpio.h  **** 
   4:./inc/gpio.h  **** #ifdef __cplusplus
   5:./inc/gpio.h  ****   extern "C" {
   6:./inc/gpio.h  **** #endif
   7:./inc/gpio.h  **** 
   8:./inc/gpio.h  **** 
   9:./inc/gpio.h  **** #define USE_ANALOG_MODE_FOR_ALL_PINS_BY_DEFAULT        1
  10:./inc/gpio.h  **** 
  11:./inc/gpio.h  **** #define GPIO_MODE                      (USE_ANALOG_MODE_FOR_ALL_PINS_BY_DEFAULT * UINT32_MAX)
  12:./inc/gpio.h  **** #define PIN_XOR                        (GPIO_MODE & 3UL)
  13:./inc/gpio.h  **** 
  14:./inc/gpio.h  **** #define PIN_MODE_INPUT                 (0x00UL ^ PIN_XOR)
  15:./inc/gpio.h  **** #define PIN_MODE_OUTPUT                (0x01UL ^ PIN_XOR)
  16:./inc/gpio.h  **** #define PIN_MODE_AF                    (0x02UL ^ PIN_XOR)
  17:./inc/gpio.h  **** #define PIN_MODE_ANALOG                (0x03UL ^ PIN_XOR)
  18:./inc/gpio.h  **** 
  19:./inc/gpio.h  **** #define PIN_CFG(PIN, MODE)             ((MODE)   << ((PIN) * 2))
  20:./inc/gpio.h  **** #define PIN_MODE(PIN, MODE)            (((MODE)  << GPIO_MODER_MODE ## PIN ## _Pos) & GPIO_MODER_MO
  21:./inc/gpio.h  **** #define PIN_SPEED(PIN, SPEED)          (((SPEED) << GPIO_OSPEEDR_OSPEED ## PIN ## _Pos) & GPIO_OSPE
  22:./inc/gpio.h  **** #define PIN_OTYPE(PIN, OTYPE)          ((OTYPE)   ? GPIO_OTYPER_OT ## PIN : 0)
  23:./inc/gpio.h  **** #define PIN_PUPD(PIN, PUPD)            (((PUPD)  << GPIO_PUPDR_PUPD ## PIN ## _Pos) & GPIO_PUPDR_PU
  24:./inc/gpio.h  **** #define PIN_AF(PIN, AF)                (AF << (PIN * 4))
  25:./inc/gpio.h  **** 
  26:./inc/gpio.h  **** #define PA0_AF1_USART1_CTS             PIN_AF(0, 1ULL)
  27:./inc/gpio.h  **** #define PA1_AF0_EVENTOUT               PIN_AF(1, 0ULL)
ARM GAS  C:\tools\cygwin\tmp\ccTehw5d.s 			page 20


  28:./inc/gpio.h  **** #define PA1_AF1_USART1_RTS             PIN_AF(1, 1ULL)
  29:./inc/gpio.h  **** #define PA2_AF1_USART1_TX              PIN_AF(2, 1ULL)
  30:./inc/gpio.h  **** #define PA3_AF1_USART1_RX              PIN_AF(3, 1ULL)
  31:./inc/gpio.h  **** #define PA4_AF0_SPI1_NSS               PIN_AF(4, 0ULL)
  32:./inc/gpio.h  **** #define PA4_AF1_USART1_CK              PIN_AF(4, 1ULL)
  33:./inc/gpio.h  **** #define PA4_AF4_TIM14_CH1              PIN_AF(4, 4ULL)
  34:./inc/gpio.h  **** #define PA5_AF0_SPI1_SCK               PIN_AF(5, 0ULL)
  35:./inc/gpio.h  **** #define PA6_AF0_SPI1_MISO              PIN_AF(6, 0ULL)
  36:./inc/gpio.h  **** #define PA6_AF1_TIM3_CH1               PIN_AF(6, 1ULL)
  37:./inc/gpio.h  **** #define PA6_AF2_TIM1_BKIN              PIN_AF(6, 2ULL)
  38:./inc/gpio.h  **** #define PA6_AF5_TIM16_CH1              PIN_AF(6, 5ULL)
  39:./inc/gpio.h  **** #define PA6_AF6_EVENTOUT               PIN_AF(6, 6ULL)
  40:./inc/gpio.h  **** #define PA7_AF0_SPI1_MOSI              PIN_AF(7, 0ULL)
  41:./inc/gpio.h  **** #define PA7_AF1_TIM3_CH2               PIN_AF(7, 1ULL)
  42:./inc/gpio.h  **** #define PA7_AF2_TIM1_CH1N              PIN_AF(7, 2ULL)
  43:./inc/gpio.h  **** #define PA7_AF4_TIM14_CH1              PIN_AF(7, 4ULL)
  44:./inc/gpio.h  **** #define PA7_AF5_TIM17_CH1              PIN_AF(7, 5ULL)
  45:./inc/gpio.h  **** #define PA7_AF6_EVENTOUT               PIN_AF(7, 6ULL)
  46:./inc/gpio.h  **** #define PA9_AF1_USART1_TX              PIN_AF(9, 1ULL)
  47:./inc/gpio.h  **** #define PA9_AF2_TIM1_CH2               PIN_AF(9, 2ULL)
  48:./inc/gpio.h  **** #define PA9_AF4_I2C1_SCL               PIN_AF(9, 4ULL)
  49:./inc/gpio.h  **** #define PA10_AF0_TIM17_BKIN            PIN_AF(10, 0ULL)
  50:./inc/gpio.h  **** #define PA10_AF1_USART1_RX             PIN_AF(10, 1ULL)
  51:./inc/gpio.h  **** #define PA10_AF2_TIM1_CH3              PIN_AF(10, 2ULL)
  52:./inc/gpio.h  **** #define PA10_AF4_I2C1_SDA              PIN_AF(10, 4ULL)
  53:./inc/gpio.h  **** #define PA13_AF0_SWDIO                 PIN_AF(13, 0ULL)
  54:./inc/gpio.h  **** #define PA13_AF1_IR_OUT                PIN_AF(13, 1ULL)
  55:./inc/gpio.h  **** #define PA14_AF0_SWCLK                 PIN_AF(14, 0ULL)
  56:./inc/gpio.h  **** #define PA14_AF1_USART1_TX             PIN_AF(14, 1ULL)
  57:./inc/gpio.h  **** 
  58:./inc/gpio.h  **** #define PIN_TYPE_PP                    0x00UL
  59:./inc/gpio.h  **** #define PIN_TYPE_OD                    0x01UL
  60:./inc/gpio.h  **** 
  61:./inc/gpio.h  **** #define PIN_SPEED_LOW                  0x00UL
  62:./inc/gpio.h  **** #define PIN_SPEED_MED                  0x01UL
  63:./inc/gpio.h  **** #define PIN_SPEED_HIGH                 0x03UL
  64:./inc/gpio.h  **** 
  65:./inc/gpio.h  **** #define PIN_PUPD_NONE                  0x00UL
  66:./inc/gpio.h  **** #define PIN_PUPD_UP                    0x01UL
  67:./inc/gpio.h  **** #define PIN_PUPD_DOWN                  0x02UL
  68:./inc/gpio.h  **** 
  69:./inc/gpio.h  **** #define _BR(PIN)                       GPIO_BSRR_BR ## PIN
  70:./inc/gpio.h  **** #define BR(PIN)                        _BR(PIN)
  71:./inc/gpio.h  **** #define _BS(PIN)                       GPIO_BSRR_BS ## PIN
  72:./inc/gpio.h  **** #define BS(PIN)                        _BS(PIN)
  73:./inc/gpio.h  **** #define _ODR(PIN)                      GPIO_ODR_OD ## PIN
  74:./inc/gpio.h  **** #define ODR(PIN)                       _ODR(PIN)
  75:./inc/gpio.h  **** 
  76:./inc/gpio.h  **** #define GPIOA_MODER                    (GPIO_MODE ^ (GPIOA_MODE))
  77:./inc/gpio.h  **** 
  78:./inc/gpio.h  **** #define GPIOA_AFR_0                    (GPIOA_AF & UINT32_MAX)
  79:./inc/gpio.h  **** #define GPIOA_AFR_1                    ((GPIOA_AF >> 32) & UINT32_MAX)
  80:./inc/gpio.h  **** 
  81:./inc/gpio.h  **** 
  82:./inc/gpio.h  **** #define CONFIGURE_PIN(GPIOx, PIN, MODE, OTYPE, SPEED, PUPD) do {                               \
  83:./inc/gpio.h  ****   if (MODE)   MODIFY_REG((GPIOx)->MODER,   (0x03UL << ((PIN) * 2)), ((MODE)  << ((PIN) * 2))); \
  84:./inc/gpio.h  ****   if (SPEED)  MODIFY_REG((GPIOx)->OSPEEDR, (0x03UL << ((PIN) * 2)), ((SPEED) << ((PIN) * 2))); \
ARM GAS  C:\tools\cygwin\tmp\ccTehw5d.s 			page 21


  85:./inc/gpio.h  ****   if (PUPD)   MODIFY_REG((GPIOx)->PUPDR,   (0x03UL << ((PIN) * 2)), ((PUPD)  << ((PIN) * 2))); \
  86:./inc/gpio.h  ****   if (OTYPE)  MODIFY_REG((GPIOx)->OTYPER,  (0x01UL << (PIN)),       ((OTYPE) << (PIN)));       \
  87:./inc/gpio.h  **** }while(0)
  88:./inc/gpio.h  **** 
  89:./inc/gpio.h  **** #ifndef USART1_EN
  90:./inc/gpio.h  ****   #define USART1_EN 0
  91:./inc/gpio.h  **** #endif
  92:./inc/gpio.h  **** 
  93:./inc/gpio.h  **** #ifndef SPI1_EN
  94:./inc/gpio.h  ****   #define SPI1_EN 0
  95:./inc/gpio.h  **** #endif
  96:./inc/gpio.h  **** 
  97:./inc/gpio.h  **** #ifndef I2C1_EN
  98:./inc/gpio.h  ****   #define I2C1_EN 0
  99:./inc/gpio.h  **** #endif
 100:./inc/gpio.h  **** 
 101:./inc/gpio.h  **** #ifndef SWD_EN
 102:./inc/gpio.h  ****   #ifndef NDEBUG
 103:./inc/gpio.h  ****     #define SWD_EN 1
 104:./inc/gpio.h  ****   #else
 105:./inc/gpio.h  ****     #define SWD_EN 0
 106:./inc/gpio.h  ****   #endif
 107:./inc/gpio.h  **** #endif
 108:./inc/gpio.h  **** 
 109:./inc/gpio.h  **** #define GPIO_MODE_EXAMPLE (       \
 110:./inc/gpio.h  ****   + PIN_MODE(0,  PIN_MODE_ANALOG) \
 111:./inc/gpio.h  ****   + PIN_MODE(1,  PIN_MODE_ANALOG) \
 112:./inc/gpio.h  ****   + PIN_MODE(2,  PIN_MODE_ANALOG) \
 113:./inc/gpio.h  ****   + PIN_MODE(3,  PIN_MODE_ANALOG) \
 114:./inc/gpio.h  ****   + PIN_MODE(4,  PIN_MODE_ANALOG) \
 115:./inc/gpio.h  ****   + PIN_MODE(5,  PIN_MODE_ANALOG) \
 116:./inc/gpio.h  ****   + PIN_MODE(6,  PIN_MODE_ANALOG) \
 117:./inc/gpio.h  ****   + PIN_MODE(7,  PIN_MODE_ANALOG) \
 118:./inc/gpio.h  ****   + PIN_MODE(8,  PIN_MODE_ANALOG) \
 119:./inc/gpio.h  ****   + PIN_MODE(9,  PIN_MODE_ANALOG) \
 120:./inc/gpio.h  ****   + PIN_MODE(10, PIN_MODE_ANALOG) \
 121:./inc/gpio.h  ****   + PIN_MODE(11, PIN_MODE_ANALOG) \
 122:./inc/gpio.h  ****   + PIN_MODE(12, PIN_MODE_ANALOG) \
 123:./inc/gpio.h  ****   + PIN_MODE(13, PIN_MODE_ANALOG) \
 124:./inc/gpio.h  ****   + PIN_MODE(14, PIN_MODE_ANALOG) \
 125:./inc/gpio.h  ****   + PIN_MODE(15, PIN_MODE_ANALOG) \
 126:./inc/gpio.h  **** )
 127:./inc/gpio.h  **** 
 128:./inc/gpio.h  **** #define GPIOA_MODE (                                                    \
 129:./inc/gpio.h  ****   !0         * PIN_MODE(0,  PIN_MODE_OUTPUT) /* PA0  -- OUTPUT     */ | \
 130:./inc/gpio.h  ****   !0         * PIN_MODE(1,  PIN_MODE_OUTPUT) /* PA1  -- OUTPUT     */ | \
 131:./inc/gpio.h  ****   !USART1_EN * PIN_MODE(2,  PIN_MODE_OUTPUT) /* PA2  -- OUTPUT     */ | \
 132:./inc/gpio.h  ****   !USART1_EN * PIN_MODE(3,  PIN_MODE_OUTPUT) /* PA3  -- OUTPUT     */ | \
 133:./inc/gpio.h  ****   USART1_EN  * PIN_MODE(2,  PIN_MODE_AF)     /* PA2  -- USART1 TX  */ | \
 134:./inc/gpio.h  ****   USART1_EN  * PIN_MODE(3,  PIN_MODE_AF)     /* PA3  -- USART1 RX  */ | \
 135:./inc/gpio.h  ****   !SPI1_EN   * PIN_MODE(4,  PIN_MODE_OUTPUT) /* PA4  -- OUTPUT     */ | \
 136:./inc/gpio.h  ****   SPI1_EN    * PIN_MODE(4,  PIN_MODE_AF)     /* PA4  -- SPI1 CS    */ | \
 137:./inc/gpio.h  ****   SPI1_EN    * PIN_MODE(5,  PIN_MODE_AF)     /* PA5  -- SPI1 SCK   */ | \
 138:./inc/gpio.h  ****   SPI1_EN    * PIN_MODE(6,  PIN_MODE_AF)     /* PA6  -- SPI1 MISO  */ | \
 139:./inc/gpio.h  ****   SPI1_EN    * PIN_MODE(7,  PIN_MODE_AF)     /* PA7  -- SPI1 MOSI  */ | \
 140:./inc/gpio.h  ****   I2C1_EN    * PIN_MODE(9,  PIN_MODE_AF)     /* PA9  -- I2C1 SDA   */ | \
 141:./inc/gpio.h  ****   I2C1_EN    * PIN_MODE(10, PIN_MODE_AF)     /* PA10 -- I2C1 SCL   */ | \
ARM GAS  C:\tools\cygwin\tmp\ccTehw5d.s 			page 22


 142:./inc/gpio.h  ****   SWD_EN     * PIN_MODE(13, PIN_MODE_AF)     /* PA13 -- SWDCLK     */ | \
 143:./inc/gpio.h  ****   SWD_EN     * PIN_MODE(14, PIN_MODE_AF)     /* PA14 -- SWDIO      */   \
 144:./inc/gpio.h  **** )
 145:./inc/gpio.h  **** 
 146:./inc/gpio.h  **** #if 0
 147:./inc/gpio.h  **** #define GPIOA_OTYPE (                         \
 148:./inc/gpio.h  ****   I2C1_EN   * (PIN_TYPE_OD << 9)            | \
 149:./inc/gpio.h  ****   I2C1_EN   * (PIN_TYPE_OD << 10)             \
 150:./inc/gpio.h  **** )
 151:./inc/gpio.h  **** #else
 152:./inc/gpio.h  **** #define GPIOA_OTYPE (                         \
 153:./inc/gpio.h  ****   I2C1_EN   * PIN_OTYPE(9,  PIN_TYPE_OD)    | \
 154:./inc/gpio.h  ****   I2C1_EN   * PIN_OTYPE(10, PIN_TYPE_OD)      \
 155:./inc/gpio.h  **** )
 156:./inc/gpio.h  **** #endif
 157:./inc/gpio.h  **** 
 158:./inc/gpio.h  **** #define GPIOA_OSPEED (                        \
 159:./inc/gpio.h  ****   SPI1_EN   * PIN_SPEED(4,  PIN_SPEED_HIGH) | \
 160:./inc/gpio.h  ****   SPI1_EN   * PIN_SPEED(5,  PIN_SPEED_HIGH) | \
 161:./inc/gpio.h  ****   SPI1_EN   * PIN_SPEED(6,  PIN_SPEED_HIGH) | \
 162:./inc/gpio.h  ****   SPI1_EN   * PIN_SPEED(7,  PIN_SPEED_HIGH)   \
 163:./inc/gpio.h  **** )
 164:./inc/gpio.h  **** 
 165:./inc/gpio.h  **** #define GPIOA_AF (                            \
 166:./inc/gpio.h  ****   USART1_EN * PA2_AF1_USART1_TX             | \
 167:./inc/gpio.h  ****   USART1_EN * PA3_AF1_USART1_RX             | \
 168:./inc/gpio.h  ****   SPI1_EN   * PA4_AF0_SPI1_NSS              | \
 169:./inc/gpio.h  ****   SPI1_EN   * PA5_AF0_SPI1_SCK              | \
 170:./inc/gpio.h  ****   SPI1_EN   * PA6_AF0_SPI1_MISO             | \
 171:./inc/gpio.h  ****   SPI1_EN   * PA7_AF0_SPI1_MOSI             | \
 172:./inc/gpio.h  ****   I2C1_EN   * PA9_AF4_I2C1_SCL              | \
 173:./inc/gpio.h  ****   I2C1_EN   * PA10_AF4_I2C1_SDA             | \
 174:./inc/gpio.h  ****   SWD_EN    * PA13_AF0_SWDIO                | \
 175:./inc/gpio.h  ****   SWD_EN    * PA14_AF0_SWCLK                  \
 176:./inc/gpio.h  **** )
 177:./inc/gpio.h  **** 
 178:./inc/gpio.h  **** __STATIC_FORCEINLINE void init_gpio(void) {
 214              		.loc 4 178 27 view .LVU26
 215              	.LBB35:
 179:./inc/gpio.h  **** 
 180:./inc/gpio.h  **** 
 181:./inc/gpio.h  ****   #if defined GPIOA_BRR
 182:./inc/gpio.h  ****     #if GPIOA_BRR != 0
 183:./inc/gpio.h  ****       GPIOA->BRR = GPIOA_BRR; /* 0x50000028: GPIO Bit Reset register, Address offset: 0x28 */
 184:./inc/gpio.h  ****     #endif
 185:./inc/gpio.h  ****   #else
 186:./inc/gpio.h  ****     #define GPIOA_BRR 0
 187:./inc/gpio.h  ****   #endif
 188:./inc/gpio.h  **** 
 189:./inc/gpio.h  ****   #if defined GPIOA_AFR_0
 190:./inc/gpio.h  ****     #if GPIOA_AFR_0 != 0
 191:./inc/gpio.h  ****       GPIOA->AFR[0] = GPIOA_AFR_0; /* 0x50000020: GPIO alternate function registers, Address offset
 192:./inc/gpio.h  ****     #endif
 193:./inc/gpio.h  ****   #else
 194:./inc/gpio.h  ****     #define GPIOA_AFR_0 0
 195:./inc/gpio.h  ****   #endif
 196:./inc/gpio.h  **** 
ARM GAS  C:\tools\cygwin\tmp\ccTehw5d.s 			page 23


 197:./inc/gpio.h  ****   #if defined GPIOA_AFR_1
 198:./inc/gpio.h  ****     #if GPIOA_AFR_1 != 0
 199:./inc/gpio.h  ****       GPIOA->AFR[1] = GPIOA_AFR_1; /* 0x50000024: GPIO alternate function registers, Address offset
 200:./inc/gpio.h  ****     #endif
 201:./inc/gpio.h  ****   #else
 202:./inc/gpio.h  ****     #define GPIOA_AFR_1 0
 203:./inc/gpio.h  ****   #endif
 204:./inc/gpio.h  **** 
 205:./inc/gpio.h  ****   #if defined GPIOA_BSRR
 206:./inc/gpio.h  ****     #if GPIOA_BSRR != 0
 207:./inc/gpio.h  ****       GPIOA->BSRR = GPIOA_BSRR; /* 0x50000018: GPIO port bit set/reset register, Address offset: 0x
 208:./inc/gpio.h  ****     #endif
 209:./inc/gpio.h  ****   #else
 210:./inc/gpio.h  ****     #define GPIOA_BSRR 0
 211:./inc/gpio.h  ****   #endif
 212:./inc/gpio.h  **** 
 213:./inc/gpio.h  ****   #if defined GPIOA_IDR
 214:./inc/gpio.h  ****     #if GPIOA_IDR != 0
 215:./inc/gpio.h  ****       GPIOA->IDR = GPIOA_IDR; /* 0x50000010: GPIO port input data register, Address offset: 0x10 */
 216:./inc/gpio.h  ****     #endif
 217:./inc/gpio.h  ****   #else
 218:./inc/gpio.h  ****     #define GPIOA_IDR 0
 219:./inc/gpio.h  ****   #endif
 220:./inc/gpio.h  **** 
 221:./inc/gpio.h  ****   #if defined GPIOA_LCKR
 222:./inc/gpio.h  ****     #if GPIOA_LCKR != 0
 223:./inc/gpio.h  ****       GPIOA->LCKR = GPIOA_LCKR; /* 0x5000001C: GPIO port configuration lock register, Address offse
 224:./inc/gpio.h  ****     #endif
 225:./inc/gpio.h  ****   #else
 226:./inc/gpio.h  ****     #define GPIOA_LCKR 0
 227:./inc/gpio.h  ****   #endif
 228:./inc/gpio.h  **** 
 229:./inc/gpio.h  ****   #if defined GPIOA_MODER
 230:./inc/gpio.h  ****     #if GPIOA_MODER != 0
 231:./inc/gpio.h  ****       GPIOA->MODER = GPIOA_MODER; /* 0x50000000: GPIO port mode register, Address offset: 0x00 */
 216              		.loc 4 231 7 view .LVU27
 217              	@ ./inc/gpio.h:231:       GPIOA->MODER = GPIOA_MODER; /* 0x50000000: GPIO port mode register, Addre
 218              		.loc 4 231 20 is_stmt 0 view .LVU28
 219 000e A023     		movs	r3, #160	@ tmp126,
 220 0010 DB05     		lsls	r3, r3, #23	@ tmp126, tmp126,
 221 0012 1149     		ldr	r1, .L16+4	@ tmp127,
 222 0014 1960     		str	r1, [r3]	@ tmp127, MEM[(struct GPIO_TypeDef *)1342177280B].MODER
 223              	.LBE35:
 224              	.LBE34:
 141:./inc/main.h  **** 
 225              		.loc 2 141 3 is_stmt 1 view .LVU29
 226              	.LBB36:
 227              	.LBI36:
 146:./inc/main.h  **** 
 228              		.loc 2 146 27 view .LVU30
 229              	.LBB37:
 150:./inc/main.h  ****   SysTick->VAL  = SysTick->LOAD;
 230              		.loc 2 150 3 view .LVU31
 231              	@ ./inc/main.h:150:   SysTick->LOAD = HCLK * 1000 / (8 - SYSTICK_CLOCK_SOURCE * 7) - 1;
 150:./inc/main.h  ****   SysTick->VAL  = SysTick->LOAD;
 232              		.loc 2 150 17 is_stmt 0 view .LVU32
 233 0016 114B     		ldr	r3, .L16+8	@ tmp128,
ARM GAS  C:\tools\cygwin\tmp\ccTehw5d.s 			page 24


 234 0018 1149     		ldr	r1, .L16+12	@ tmp129,
 235 001a 5960     		str	r1, [r3, #4]	@ tmp129, MEM[(struct SysTick_Type *)3758153744B].LOAD
 151:./inc/main.h  ****   SysTick->CTRL = (
 236              		.loc 2 151 3 is_stmt 1 view .LVU33
 237              	@ ./inc/main.h:151:   SysTick->VAL  = SysTick->LOAD;
 151:./inc/main.h  ****   SysTick->CTRL = (
 238              		.loc 2 151 26 is_stmt 0 view .LVU34
 239 001c 5968     		ldr	r1, [r3, #4]	@ _3, MEM[(struct SysTick_Type *)3758153744B].LOAD
 240              	@ ./inc/main.h:151:   SysTick->VAL  = SysTick->LOAD;
 151:./inc/main.h  ****   SysTick->CTRL = (
 241              		.loc 2 151 17 view .LVU35
 242 001e 9960     		str	r1, [r3, #8]	@ _3, MEM[(struct SysTick_Type *)3758153744B].VAL
 152:./inc/main.h  ****     + SYSTICK_CLOCK_SOURCE * SysTick_CTRL_CLKSOURCE_Msk
 243              		.loc 2 152 3 is_stmt 1 view .LVU36
 244              	@ ./inc/main.h:152:   SysTick->CTRL = (
 152:./inc/main.h  ****     + SYSTICK_CLOCK_SOURCE * SysTick_CTRL_CLKSOURCE_Msk
 245              		.loc 2 152 17 is_stmt 0 view .LVU37
 246 0020 1A60     		str	r2, [r3]	@ tmp123, MEM[(struct SysTick_Type *)3758153744B].CTRL
 247              	.LBE37:
 248              	.LBE36:
 249              	@ ./inc/main.h:143: } /* init() */
 143:./inc/main.h  **** 
 250              		.loc 2 143 1 view .LVU38
 251 0022 04E0     		b	.L12		@
 252              	.L14:
 253              	.LBE31:
 254              	.LBE30:
 255              	.LBB38:
 256              	.LBB39:
 257              	.LBB40:
 258              	@ ./src/main.c:50:   GPIOA->BSRR = ++*uptime() & (1 << 9) ? GPIO_BSRR_BS4 : GPIO_BSRR_BR4;
   7:./src/main.c  **** }
   8:./src/main.c  **** 
   9:./src/main.c  **** 
  10:./src/main.c  **** /**
  11:./src/main.c  ****  * @brief  Returns pointer to the system uptime counter
  12:./src/main.c  ****  * @retval Pointer to volatile 64-bit uptime value (milliseconds/ticks)
  13:./src/main.c  ****  */
  14:./src/main.c  **** __STATIC_FORCEINLINE __SYSTICK_VOLATILE uint64_t * uptime(void) {
  15:./src/main.c  ****   extern __SYSTICK_VOLATILE uint64_t system_uptime;
  16:./src/main.c  ****   return &system_uptime;
  17:./src/main.c  **** }
  18:./src/main.c  **** 
  19:./src/main.c  **** 
  20:./src/main.c  **** /**
  21:./src/main.c  ****  * @brief  SysTick event processing - handles uptime increment and LED toggle
  22:./src/main.c  ****  * @note   Implementation is shared between polling and interrupt modes
  23:./src/main.c  ****  *         depending on SYSTICK_IRQ_EN configuration
  24:./src/main.c  ****  */
  25:./src/main.c  **** #if YES == SYSTICK_IRQ_EN
  26:./src/main.c  **** 
  27:./src/main.c  **** /* IRQ mode: Empty inline stub; actual implementation runs in interrupt handler */
  28:./src/main.c  **** __STATIC_FORCEINLINE void process_systick_event(void) {}
  29:./src/main.c  **** 
  30:./src/main.c  **** /* SysTick interrupt service routine */
  31:./src/main.c  **** void SysTick_Handler(void);
  32:./src/main.c  **** void SysTick_Handler(void) {
ARM GAS  C:\tools\cygwin\tmp\ccTehw5d.s 			page 25


  33:./src/main.c  **** 
  34:./src/main.c  **** #else
  35:./src/main.c  **** 
  36:./src/main.c  **** /* Polling mode: Check COUNTFLAG before processing */
  37:./src/main.c  **** __STATIC_FORCEINLINE void process_systick_event(void) {
  38:./src/main.c  ****   if (0 == (SysTick->CTRL & SysTick_CTRL_COUNTFLAG_Msk)) {
  39:./src/main.c  ****     return;  /* No event occurred, exit early */
  40:./src/main.c  ****   }
  41:./src/main.c  ****   
  42:./src/main.c  **** #endif
  43:./src/main.c  **** 
  44:./src/main.c  ****   /* ========== Shared implementation (IRQ or polling) ========== */
  45:./src/main.c  ****   
  46:./src/main.c  ****   /* Increment uptime counter and toggle PA4 LED based on bit 9 state
  47:./src/main.c  ****    * When bit 9 of uptime is set: turn LED on (BSRR BS4)
  48:./src/main.c  ****    * When bit 9 of uptime is clear: turn LED off (BSRR BR4)
  49:./src/main.c  ****    * This creates a blink period of 2^10 = 1024 ticks */
  50:./src/main.c  ****   GPIOA->BSRR = ++*uptime() & (1 << 9) ? GPIO_BSRR_BS4 : GPIO_BSRR_BR4;
 259              		.loc 1 50 56 discriminator 3 view .LVU39
 260 0024 8022     		movs	r2, #128	@ iftmp.0_9,
 261 0026 5203     		lsls	r2, r2, #13	@ iftmp.0_9, iftmp.0_9,
 262              	.L10:
 263              	@ ./src/main.c:50:   GPIOA->BSRR = ++*uptime() & (1 << 9) ? GPIO_BSRR_BS4 : GPIO_BSRR_BR4;
 264              		.loc 1 50 15 discriminator 5 view .LVU40
 265 0028 A023     		movs	r3, #160	@ tmp141,
 266 002a DB05     		lsls	r3, r3, #23	@ tmp141, tmp141,
 267 002c 9A61     		str	r2, [r3, #24]	@ iftmp.0_9, MEM[(struct GPIO_TypeDef *)1342177280B].BSRR
 268              	.L12:
 269              	.LBE40:
 270              	.LBE39:
 271              	.LBE38:
   6:./src/main.c  **** }
 272              		.loc 1 6 16 is_stmt 1 discriminator 2 view .LVU41
   6:./src/main.c  **** }
 273              		.loc 1 6 27 discriminator 6 view .LVU42
 274              	.LBB43:
 275              	.LBI38:
  51:./src/main.c  **** 
  52:./src/main.c  **** }
  53:./src/main.c  **** 
  54:./src/main.c  **** 
  55:./src/main.c  **** /**
  56:./src/main.c  ****  * @brief  Idle state handler - processes pending events during main loop idle time
  57:./src/main.c  ****  * @note   Called repeatedly from main loop when no work is pending
  58:./src/main.c  ****  */
  59:./src/main.c  **** __STATIC_FORCEINLINE void idle(void) {
 276              		.loc 1 59 27 view .LVU43
  60:./src/main.c  ****   process_systick_event();
 277              		.loc 1 60 3 view .LVU44
 278              	.LBB42:
 279              	.LBI39:
  37:./src/main.c  ****   if (0 == (SysTick->CTRL & SysTick_CTRL_COUNTFLAG_Msk)) {
 280              		.loc 1 37 27 view .LVU45
 281              	.LBB41:
  38:./src/main.c  ****     return;  /* No event occurred, exit early */
 282              		.loc 1 38 3 view .LVU46
 283              	@ ./src/main.c:38:   if (0 == (SysTick->CTRL & SysTick_CTRL_COUNTFLAG_Msk)) {
ARM GAS  C:\tools\cygwin\tmp\ccTehw5d.s 			page 26


  38:./src/main.c  ****     return;  /* No event occurred, exit early */
 284              		.loc 1 38 20 is_stmt 0 view .LVU47
 285 002e 0B4B     		ldr	r3, .L16+8	@ tmp142,
 286 0030 1B68     		ldr	r3, [r3]	@ _4, MEM[(struct SysTick_Type *)3758153744B].CTRL
 287              	@ ./src/main.c:38:   if (0 == (SysTick->CTRL & SysTick_CTRL_COUNTFLAG_Msk)) {
  38:./src/main.c  ****     return;  /* No event occurred, exit early */
 288              		.loc 1 38 6 view .LVU48
 289 0032 DB03     		lsls	r3, r3, #15	@ tmp151, _4,
 290 0034 FBD5     		bpl	.L12		@,
  50:./src/main.c  **** 
 291              		.loc 1 50 3 is_stmt 1 view .LVU49
 292              	@ ./src/main.c:50:   GPIOA->BSRR = ++*uptime() & (1 << 9) ? GPIO_BSRR_BS4 : GPIO_BSRR_BR4;
  50:./src/main.c  **** 
 293              		.loc 1 50 19 is_stmt 0 discriminator 1 view .LVU50
 294 0036 0B49     		ldr	r1, .L16+16	@ tmp134,
 295 0038 0A68     		ldr	r2, [r1]	@ _6, system_uptime
 296 003a 4B68     		ldr	r3, [r1, #4]	@ _6, system_uptime
 297              	@ ./src/main.c:50:   GPIOA->BSRR = ++*uptime() & (1 << 9) ? GPIO_BSRR_BS4 : GPIO_BSRR_BR4;
  50:./src/main.c  **** 
 298              		.loc 1 50 17 discriminator 1 view .LVU51
 299 003c 0124     		movs	r4, #1	@ tmp135,
 300 003e 0025     		movs	r5, #0	@,
 301 0040 A418     		adds	r4, r4, r2	@ _7, _6
 302 0042 5D41     		adcs	r5, r5, r3	@ _7, _6
 303              	@ ./src/main.c:50:   GPIOA->BSRR = ++*uptime() & (1 << 9) ? GPIO_BSRR_BS4 : GPIO_BSRR_BR4;
  50:./src/main.c  **** 
 304              		.loc 1 50 56 discriminator 1 view .LVU52
 305 0044 0C60     		str	r4, [r1]	@ _7, system_uptime
 306 0046 4D60     		str	r5, [r1, #4]	@ _7,
 307              	@ ./src/main.c:50:   GPIOA->BSRR = ++*uptime() & (1 << 9) ? GPIO_BSRR_BS4 : GPIO_BSRR_BR4;
  50:./src/main.c  **** 
 308              		.loc 1 50 29 discriminator 1 view .LVU53
 309 0048 8023     		movs	r3, #128	@ tmp137,
 310 004a 9B00     		lsls	r3, r3, #2	@ tmp137, tmp137,
 311              	@ ./src/main.c:50:   GPIOA->BSRR = ++*uptime() & (1 << 9) ? GPIO_BSRR_BS4 : GPIO_BSRR_BR4;
  50:./src/main.c  **** 
 312              		.loc 1 50 56 discriminator 1 view .LVU54
 313 004c 2342     		tst	r3, r4	@ tmp137, _7
 314 004e E9D0     		beq	.L14		@,
 315              	@ ./src/main.c:50:   GPIOA->BSRR = ++*uptime() & (1 << 9) ? GPIO_BSRR_BS4 : GPIO_BSRR_BR4;
  50:./src/main.c  **** 
 316              		.loc 1 50 56 discriminator 2 view .LVU55
 317 0050 1022     		movs	r2, #16	@ iftmp.0_9,
 318 0052 E9E7     		b	.L10		@
 319              	.L17:
 320              		.align	2
 321              	.L16:
 322 0054 00100240 		.word	1073876992
 323 0058 55FDFFEB 		.word	-335545003
 324 005c 10E000E0 		.word	-536813552
 325 0060 E7030000 		.word	999
 326 0064 00000000 		.word	system_uptime
 327              	.LBE41:
 328              	.LBE42:
 329              	.LBE43:
 330              		.cfi_endproc
 331              	.LFE62:
ARM GAS  C:\tools\cygwin\tmp\ccTehw5d.s 			page 27


 333              		.global	system_uptime
 334              		.section	.bss.system_uptime,"aw",%nobits
 335              		.align	3
 338              	system_uptime:
 339 0000 00000000 		.space	8
 339      00000000 
 340              		.text
 341              	.Letext0:
 342              		.file 5 "C:/Users/mr.smith/scoop/apps/gcc-arm-none-eabi/15.2.rel1/arm-none-eabi/include/machine/_d
 343              		.file 6 "C:/Users/mr.smith/scoop/apps/gcc-arm-none-eabi/15.2.rel1/arm-none-eabi/include/sys/_stdin
 344              		.file 7 "./inc/core_cm0plus.h"
 345              		.file 8 "./inc/stm32g031xx.h"
ARM GAS  C:\tools\cygwin\tmp\ccTehw5d.s 			page 28

